Disassembly of section .init:

0000000000400c48 <_init>:
  400c48:	48 83 ec 08          	sub    $0x8,%rsp
  400c4c:	48 8b 05 a5 43 20 00 	mov    0x2043a5(%rip),%rax        # 604ff8 <_DYNAMIC+0x1d0>
  400c53:	48 85 c0             	test   %rax,%rax
  400c56:	74 05                	je     400c5d <_init+0x15>
  400c58:	e8 43 02 00 00       	callq  400ea0 <socket@plt+0x10>
  400c5d:	48 83 c4 08          	add    $0x8,%rsp
  400c61:	c3                   	retq   

Disassembly of section .plt:

0000000000400c70 <strcasecmp@plt-0x10>:
  400c70:	ff 35 92 43 20 00    	pushq  0x204392(%rip)        # 605008 <_GLOBAL_OFFSET_TABLE_+0x8>
  400c76:	ff 25 94 43 20 00    	jmpq   *0x204394(%rip)        # 605010 <_GLOBAL_OFFSET_TABLE_+0x10>
  400c7c:	0f 1f 40 00          	nopl   0x0(%rax)

0000000000400c80 <strcasecmp@plt>:
  400c80:	ff 25 92 43 20 00    	jmpq   *0x204392(%rip)        # 605018 <_GLOBAL_OFFSET_TABLE_+0x18>
  400c86:	68 00 00 00 00       	pushq  $0x0
  400c8b:	e9 e0 ff ff ff       	jmpq   400c70 <_init+0x28>

0000000000400c90 <__errno_location@plt>:
  400c90:	ff 25 8a 43 20 00    	jmpq   *0x20438a(%rip)        # 605020 <_GLOBAL_OFFSET_TABLE_+0x20>
  400c96:	68 01 00 00 00       	pushq  $0x1
  400c9b:	e9 d0 ff ff ff       	jmpq   400c70 <_init+0x28>

0000000000400ca0 <srandom@plt>:
  400ca0:	ff 25 82 43 20 00    	jmpq   *0x204382(%rip)        # 605028 <_GLOBAL_OFFSET_TABLE_+0x28>
  400ca6:	68 02 00 00 00       	pushq  $0x2
  400cab:	e9 c0 ff ff ff       	jmpq   400c70 <_init+0x28>

0000000000400cb0 <strncmp@plt>:
  400cb0:	ff 25 7a 43 20 00    	jmpq   *0x20437a(%rip)        # 605030 <_GLOBAL_OFFSET_TABLE_+0x30>
  400cb6:	68 03 00 00 00       	pushq  $0x3
  400cbb:	e9 b0 ff ff ff       	jmpq   400c70 <_init+0x28>

0000000000400cc0 <strcpy@plt>:
  400cc0:	ff 25 72 43 20 00    	jmpq   *0x204372(%rip)        # 605038 <_GLOBAL_OFFSET_TABLE_+0x38>
  400cc6:	68 04 00 00 00       	pushq  $0x4
  400ccb:	e9 a0 ff ff ff       	jmpq   400c70 <_init+0x28>

0000000000400cd0 <puts@plt>:
  400cd0:	ff 25 6a 43 20 00    	jmpq   *0x20436a(%rip)        # 605040 <_GLOBAL_OFFSET_TABLE_+0x40>
  400cd6:	68 05 00 00 00       	pushq  $0x5
  400cdb:	e9 90 ff ff ff       	jmpq   400c70 <_init+0x28>

0000000000400ce0 <write@plt>:
  400ce0:	ff 25 62 43 20 00    	jmpq   *0x204362(%rip)        # 605048 <_GLOBAL_OFFSET_TABLE_+0x48>
  400ce6:	68 06 00 00 00       	pushq  $0x6
  400ceb:	e9 80 ff ff ff       	jmpq   400c70 <_init+0x28>

0000000000400cf0 <__stack_chk_fail@plt>:
  400cf0:	ff 25 5a 43 20 00    	jmpq   *0x20435a(%rip)        # 605050 <_GLOBAL_OFFSET_TABLE_+0x50>
  400cf6:	68 07 00 00 00       	pushq  $0x7
  400cfb:	e9 70 ff ff ff       	jmpq   400c70 <_init+0x28>

0000000000400d00 <mmap@plt>:
  400d00:	ff 25 52 43 20 00    	jmpq   *0x204352(%rip)        # 605058 <_GLOBAL_OFFSET_TABLE_+0x58>
  400d06:	68 08 00 00 00       	pushq  $0x8
  400d0b:	e9 60 ff ff ff       	jmpq   400c70 <_init+0x28>

0000000000400d10 <memset@plt>:
  400d10:	ff 25 4a 43 20 00    	jmpq   *0x20434a(%rip)        # 605060 <_GLOBAL_OFFSET_TABLE_+0x60>
  400d16:	68 09 00 00 00       	pushq  $0x9
  400d1b:	e9 50 ff ff ff       	jmpq   400c70 <_init+0x28>

0000000000400d20 <alarm@plt>:
  400d20:	ff 25 42 43 20 00    	jmpq   *0x204342(%rip)        # 605068 <_GLOBAL_OFFSET_TABLE_+0x68>
  400d26:	68 0a 00 00 00       	pushq  $0xa
  400d2b:	e9 40 ff ff ff       	jmpq   400c70 <_init+0x28>

0000000000400d30 <close@plt>:
  400d30:	ff 25 3a 43 20 00    	jmpq   *0x20433a(%rip)        # 605070 <_GLOBAL_OFFSET_TABLE_+0x70>
  400d36:	68 0b 00 00 00       	pushq  $0xb
  400d3b:	e9 30 ff ff ff       	jmpq   400c70 <_init+0x28>

0000000000400d40 <read@plt>:
  400d40:	ff 25 32 43 20 00    	jmpq   *0x204332(%rip)        # 605078 <_GLOBAL_OFFSET_TABLE_+0x78>
  400d46:	68 0c 00 00 00       	pushq  $0xc
  400d4b:	e9 20 ff ff ff       	jmpq   400c70 <_init+0x28>

0000000000400d50 <__libc_start_main@plt>:
  400d50:	ff 25 2a 43 20 00    	jmpq   *0x20432a(%rip)        # 605080 <_GLOBAL_OFFSET_TABLE_+0x80>
  400d56:	68 0d 00 00 00       	pushq  $0xd
  400d5b:	e9 10 ff ff ff       	jmpq   400c70 <_init+0x28>

0000000000400d60 <signal@plt>:
  400d60:	ff 25 22 43 20 00    	jmpq   *0x204322(%rip)        # 605088 <_GLOBAL_OFFSET_TABLE_+0x88>
  400d66:	68 0e 00 00 00       	pushq  $0xe
  400d6b:	e9 00 ff ff ff       	jmpq   400c70 <_init+0x28>

0000000000400d70 <gethostbyname@plt>:
  400d70:	ff 25 1a 43 20 00    	jmpq   *0x20431a(%rip)        # 605090 <_GLOBAL_OFFSET_TABLE_+0x90>
  400d76:	68 0f 00 00 00       	pushq  $0xf
  400d7b:	e9 f0 fe ff ff       	jmpq   400c70 <_init+0x28>

0000000000400d80 <__memmove_chk@plt>:
  400d80:	ff 25 12 43 20 00    	jmpq   *0x204312(%rip)        # 605098 <_GLOBAL_OFFSET_TABLE_+0x98>
  400d86:	68 10 00 00 00       	pushq  $0x10
  400d8b:	e9 e0 fe ff ff       	jmpq   400c70 <_init+0x28>

0000000000400d90 <strtol@plt>:
  400d90:	ff 25 0a 43 20 00    	jmpq   *0x20430a(%rip)        # 6050a0 <_GLOBAL_OFFSET_TABLE_+0xa0>
  400d96:	68 11 00 00 00       	pushq  $0x11
  400d9b:	e9 d0 fe ff ff       	jmpq   400c70 <_init+0x28>

0000000000400da0 <memcpy@plt>:
  400da0:	ff 25 02 43 20 00    	jmpq   *0x204302(%rip)        # 6050a8 <_GLOBAL_OFFSET_TABLE_+0xa8>
  400da6:	68 12 00 00 00       	pushq  $0x12
  400dab:	e9 c0 fe ff ff       	jmpq   400c70 <_init+0x28>

0000000000400db0 <time@plt>:
  400db0:	ff 25 fa 42 20 00    	jmpq   *0x2042fa(%rip)        # 6050b0 <_GLOBAL_OFFSET_TABLE_+0xb0>
  400db6:	68 13 00 00 00       	pushq  $0x13
  400dbb:	e9 b0 fe ff ff       	jmpq   400c70 <_init+0x28>

0000000000400dc0 <random@plt>:
  400dc0:	ff 25 f2 42 20 00    	jmpq   *0x2042f2(%rip)        # 6050b8 <_GLOBAL_OFFSET_TABLE_+0xb8>
  400dc6:	68 14 00 00 00       	pushq  $0x14
  400dcb:	e9 a0 fe ff ff       	jmpq   400c70 <_init+0x28>

0000000000400dd0 <_IO_getc@plt>:
  400dd0:	ff 25 ea 42 20 00    	jmpq   *0x2042ea(%rip)        # 6050c0 <_GLOBAL_OFFSET_TABLE_+0xc0>
  400dd6:	68 15 00 00 00       	pushq  $0x15
  400ddb:	e9 90 fe ff ff       	jmpq   400c70 <_init+0x28>

0000000000400de0 <__isoc99_sscanf@plt>:
  400de0:	ff 25 e2 42 20 00    	jmpq   *0x2042e2(%rip)        # 6050c8 <_GLOBAL_OFFSET_TABLE_+0xc8>
  400de6:	68 16 00 00 00       	pushq  $0x16
  400deb:	e9 80 fe ff ff       	jmpq   400c70 <_init+0x28>

0000000000400df0 <munmap@plt>:
  400df0:	ff 25 da 42 20 00    	jmpq   *0x2042da(%rip)        # 6050d0 <_GLOBAL_OFFSET_TABLE_+0xd0>
  400df6:	68 17 00 00 00       	pushq  $0x17
  400dfb:	e9 70 fe ff ff       	jmpq   400c70 <_init+0x28>

0000000000400e00 <__printf_chk@plt>:
  400e00:	ff 25 d2 42 20 00    	jmpq   *0x2042d2(%rip)        # 6050d8 <_GLOBAL_OFFSET_TABLE_+0xd8>
  400e06:	68 18 00 00 00       	pushq  $0x18
  400e0b:	e9 60 fe ff ff       	jmpq   400c70 <_init+0x28>

0000000000400e10 <fopen@plt>:
  400e10:	ff 25 ca 42 20 00    	jmpq   *0x2042ca(%rip)        # 6050e0 <_GLOBAL_OFFSET_TABLE_+0xe0>
  400e16:	68 19 00 00 00       	pushq  $0x19
  400e1b:	e9 50 fe ff ff       	jmpq   400c70 <_init+0x28>

0000000000400e20 <getopt@plt>:
  400e20:	ff 25 c2 42 20 00    	jmpq   *0x2042c2(%rip)        # 6050e8 <_GLOBAL_OFFSET_TABLE_+0xe8>
  400e26:	68 1a 00 00 00       	pushq  $0x1a
  400e2b:	e9 40 fe ff ff       	jmpq   400c70 <_init+0x28>

0000000000400e30 <strtoul@plt>:
  400e30:	ff 25 ba 42 20 00    	jmpq   *0x2042ba(%rip)        # 6050f0 <_GLOBAL_OFFSET_TABLE_+0xf0>
  400e36:	68 1b 00 00 00       	pushq  $0x1b
  400e3b:	e9 30 fe ff ff       	jmpq   400c70 <_init+0x28>

0000000000400e40 <gethostname@plt>:
  400e40:	ff 25 b2 42 20 00    	jmpq   *0x2042b2(%rip)        # 6050f8 <_GLOBAL_OFFSET_TABLE_+0xf8>
  400e46:	68 1c 00 00 00       	pushq  $0x1c
  400e4b:	e9 20 fe ff ff       	jmpq   400c70 <_init+0x28>

0000000000400e50 <exit@plt>:
  400e50:	ff 25 aa 42 20 00    	jmpq   *0x2042aa(%rip)        # 605100 <_GLOBAL_OFFSET_TABLE_+0x100>
  400e56:	68 1d 00 00 00       	pushq  $0x1d
  400e5b:	e9 10 fe ff ff       	jmpq   400c70 <_init+0x28>

0000000000400e60 <connect@plt>:
  400e60:	ff 25 a2 42 20 00    	jmpq   *0x2042a2(%rip)        # 605108 <_GLOBAL_OFFSET_TABLE_+0x108>
  400e66:	68 1e 00 00 00       	pushq  $0x1e
  400e6b:	e9 00 fe ff ff       	jmpq   400c70 <_init+0x28>

0000000000400e70 <__fprintf_chk@plt>:
  400e70:	ff 25 9a 42 20 00    	jmpq   *0x20429a(%rip)        # 605110 <_GLOBAL_OFFSET_TABLE_+0x110>
  400e76:	68 1f 00 00 00       	pushq  $0x1f
  400e7b:	e9 f0 fd ff ff       	jmpq   400c70 <_init+0x28>

0000000000400e80 <__sprintf_chk@plt>:
  400e80:	ff 25 92 42 20 00    	jmpq   *0x204292(%rip)        # 605118 <_GLOBAL_OFFSET_TABLE_+0x118>
  400e86:	68 20 00 00 00       	pushq  $0x20
  400e8b:	e9 e0 fd ff ff       	jmpq   400c70 <_init+0x28>

0000000000400e90 <socket@plt>:
  400e90:	ff 25 8a 42 20 00    	jmpq   *0x20428a(%rip)        # 605120 <_GLOBAL_OFFSET_TABLE_+0x120>
  400e96:	68 21 00 00 00       	pushq  $0x21
  400e9b:	e9 d0 fd ff ff       	jmpq   400c70 <_init+0x28>

Disassembly of section .plt.got:

0000000000400ea0 <.plt.got>:
  400ea0:	ff 25 52 41 20 00    	jmpq   *0x204152(%rip)        # 604ff8 <_DYNAMIC+0x1d0>
  400ea6:	66 90                	xchg   %ax,%ax

Disassembly of section .text:

0000000000400eb0 <_start>:
  400eb0:	31 ed                	xor    %ebp,%ebp
  400eb2:	49 89 d1             	mov    %rdx,%r9
  400eb5:	5e                   	pop    %rsi
  400eb6:	48 89 e2             	mov    %rsp,%rdx
  400eb9:	48 83 e4 f0          	and    $0xfffffffffffffff0,%rsp
  400ebd:	50                   	push   %rax
  400ebe:	54                   	push   %rsp
  400ebf:	49 c7 c0 20 30 40 00 	mov    $0x403020,%r8
  400ec6:	48 c7 c1 b0 2f 40 00 	mov    $0x402fb0,%rcx
  400ecd:	48 c7 c7 b5 11 40 00 	mov    $0x4011b5,%rdi
  400ed4:	e8 77 fe ff ff       	callq  400d50 <__libc_start_main@plt>
  400ed9:	f4                   	hlt    
  400eda:	66 0f 1f 44 00 00    	nopw   0x0(%rax,%rax,1)

0000000000400ee0 <deregister_tm_clones>:
  400ee0:	b8 97 59 60 00       	mov    $0x605997,%eax
  400ee5:	55                   	push   %rbp
  400ee6:	48 2d 90 59 60 00    	sub    $0x605990,%rax
  400eec:	48 83 f8 0e          	cmp    $0xe,%rax
  400ef0:	48 89 e5             	mov    %rsp,%rbp
  400ef3:	76 1b                	jbe    400f10 <deregister_tm_clones+0x30>
  400ef5:	b8 00 00 00 00       	mov    $0x0,%eax
  400efa:	48 85 c0             	test   %rax,%rax
  400efd:	74 11                	je     400f10 <deregister_tm_clones+0x30>
  400eff:	5d                   	pop    %rbp
  400f00:	bf 90 59 60 00       	mov    $0x605990,%edi
  400f05:	ff e0                	jmpq   *%rax
  400f07:	66 0f 1f 84 00 00 00 	nopw   0x0(%rax,%rax,1)
  400f0e:	00 00 
  400f10:	5d                   	pop    %rbp
  400f11:	c3                   	retq   
  400f12:	0f 1f 40 00          	nopl   0x0(%rax)
  400f16:	66 2e 0f 1f 84 00 00 	nopw   %cs:0x0(%rax,%rax,1)
  400f1d:	00 00 00 

0000000000400f20 <register_tm_clones>:
  400f20:	be 90 59 60 00       	mov    $0x605990,%esi
  400f25:	55                   	push   %rbp
  400f26:	48 81 ee 90 59 60 00 	sub    $0x605990,%rsi
  400f2d:	48 c1 fe 03          	sar    $0x3,%rsi
  400f31:	48 89 e5             	mov    %rsp,%rbp
  400f34:	48 89 f0             	mov    %rsi,%rax
  400f37:	48 c1 e8 3f          	shr    $0x3f,%rax
  400f3b:	48 01 c6             	add    %rax,%rsi
  400f3e:	48 d1 fe             	sar    %rsi
  400f41:	74 15                	je     400f58 <register_tm_clones+0x38>
  400f43:	b8 00 00 00 00       	mov    $0x0,%eax
  400f48:	48 85 c0             	test   %rax,%rax
  400f4b:	74 0b                	je     400f58 <register_tm_clones+0x38>
  400f4d:	5d                   	pop    %rbp
  400f4e:	bf 90 59 60 00       	mov    $0x605990,%edi
  400f53:	ff e0                	jmpq   *%rax
  400f55:	0f 1f 00             	nopl   (%rax)
  400f58:	5d                   	pop    %rbp
  400f59:	c3                   	retq   
  400f5a:	66 0f 1f 44 00 00    	nopw   0x0(%rax,%rax,1)

0000000000400f60 <__do_global_dtors_aux>:
  400f60:	80 3d 61 4a 20 00 00 	cmpb   $0x0,0x204a61(%rip)        # 6059c8 <completed.7585>
  400f67:	75 11                	jne    400f7a <__do_global_dtors_aux+0x1a>
  400f69:	55                   	push   %rbp
  400f6a:	48 89 e5             	mov    %rsp,%rbp
  400f6d:	e8 6e ff ff ff       	callq  400ee0 <deregister_tm_clones>
  400f72:	5d                   	pop    %rbp
  400f73:	c6 05 4e 4a 20 00 01 	movb   $0x1,0x204a4e(%rip)        # 6059c8 <completed.7585>
  400f7a:	f3 c3                	repz retq 
  400f7c:	0f 1f 40 00          	nopl   0x0(%rax)

0000000000400f80 <frame_dummy>:
  400f80:	bf 20 4e 60 00       	mov    $0x604e20,%edi
  400f85:	48 83 3f 00          	cmpq   $0x0,(%rdi)
  400f89:	75 05                	jne    400f90 <frame_dummy+0x10>
  400f8b:	eb 93                	jmp    400f20 <register_tm_clones>
  400f8d:	0f 1f 00             	nopl   (%rax)
  400f90:	b8 00 00 00 00       	mov    $0x0,%eax
  400f95:	48 85 c0             	test   %rax,%rax
  400f98:	74 f1                	je     400f8b <frame_dummy+0xb>
  400f9a:	55                   	push   %rbp
  400f9b:	48 89 e5             	mov    %rsp,%rbp
  400f9e:	ff d0                	callq  *%rax
  400fa0:	5d                   	pop    %rbp
  400fa1:	e9 7a ff ff ff       	jmpq   400f20 <register_tm_clones>

0000000000400fa6 <usage>:
  400fa6:	48 83 ec 08          	sub    $0x8,%rsp
  400faa:	48 89 fa             	mov    %rdi,%rdx
  400fad:	83 3d 54 4a 20 00 00 	cmpl   $0x0,0x204a54(%rip)        # 605a08 <is_checker>
  400fb4:	74 3e                	je     400ff4 <usage+0x4e>
  400fb6:	be 38 30 40 00       	mov    $0x403038,%esi
  400fbb:	bf 01 00 00 00       	mov    $0x1,%edi
  400fc0:	b8 00 00 00 00       	mov    $0x0,%eax
  400fc5:	e8 36 fe ff ff       	callq  400e00 <__printf_chk@plt>
  400fca:	bf 70 30 40 00       	mov    $0x403070,%edi
  400fcf:	e8 fc fc ff ff       	callq  400cd0 <puts@plt>
  400fd4:	bf e8 31 40 00       	mov    $0x4031e8,%edi
  400fd9:	e8 f2 fc ff ff       	callq  400cd0 <puts@plt>
  400fde:	bf 98 30 40 00       	mov    $0x403098,%edi
  400fe3:	e8 e8 fc ff ff       	callq  400cd0 <puts@plt>
  400fe8:	bf 02 32 40 00       	mov    $0x403202,%edi
  400fed:	e8 de fc ff ff       	callq  400cd0 <puts@plt>
  400ff2:	eb 32                	jmp    401026 <usage+0x80>
  400ff4:	be 1e 32 40 00       	mov    $0x40321e,%esi
  400ff9:	bf 01 00 00 00       	mov    $0x1,%edi
  400ffe:	b8 00 00 00 00       	mov    $0x0,%eax
  401003:	e8 f8 fd ff ff       	callq  400e00 <__printf_chk@plt>
  401008:	bf c0 30 40 00       	mov    $0x4030c0,%edi
  40100d:	e8 be fc ff ff       	callq  400cd0 <puts@plt>
  401012:	bf e8 30 40 00       	mov    $0x4030e8,%edi
  401017:	e8 b4 fc ff ff       	callq  400cd0 <puts@plt>
  40101c:	bf 3c 32 40 00       	mov    $0x40323c,%edi
  401021:	e8 aa fc ff ff       	callq  400cd0 <puts@plt>
  401026:	bf 00 00 00 00       	mov    $0x0,%edi
  40102b:	e8 20 fe ff ff       	callq  400e50 <exit@plt>

0000000000401030 <initialize_target>:
  401030:	55                   	push   %rbp
  401031:	53                   	push   %rbx
  401032:	48 81 ec 18 21 00 00 	sub    $0x2118,%rsp
  401039:	89 f5                	mov    %esi,%ebp
  40103b:	64 48 8b 04 25 28 00 	mov    %fs:0x28,%rax
  401042:	00 00 
  401044:	48 89 84 24 08 21 00 	mov    %rax,0x2108(%rsp)
  40104b:	00 
  40104c:	31 c0                	xor    %eax,%eax
  40104e:	89 3d a4 49 20 00    	mov    %edi,0x2049a4(%rip)        # 6059f8 <check_level>
  401054:	8b 3d 0e 41 20 00    	mov    0x20410e(%rip),%edi        # 605168 <target_id>
  40105a:	e8 32 1f 00 00       	callq  402f91 <gencookie>
  40105f:	89 05 9f 49 20 00    	mov    %eax,0x20499f(%rip)        # 605a04 <cookie>
  401065:	89 c7                	mov    %eax,%edi
  401067:	e8 25 1f 00 00       	callq  402f91 <gencookie>
  40106c:	89 05 8e 49 20 00    	mov    %eax,0x20498e(%rip)        # 605a00 <authkey>
  401072:	8b 05 f0 40 20 00    	mov    0x2040f0(%rip),%eax        # 605168 <target_id>
  401078:	8d 78 01             	lea    0x1(%rax),%edi
  40107b:	e8 20 fc ff ff       	callq  400ca0 <srandom@plt>
  401080:	e8 3b fd ff ff       	callq  400dc0 <random@plt>
  401085:	89 c7                	mov    %eax,%edi
  401087:	e8 03 03 00 00       	callq  40138f <scramble>
  40108c:	89 c3                	mov    %eax,%ebx
  40108e:	85 ed                	test   %ebp,%ebp
  401090:	74 18                	je     4010aa <initialize_target+0x7a>
  401092:	bf 00 00 00 00       	mov    $0x0,%edi
  401097:	e8 14 fd ff ff       	callq  400db0 <time@plt>
  40109c:	89 c7                	mov    %eax,%edi
  40109e:	e8 fd fb ff ff       	callq  400ca0 <srandom@plt>
  4010a3:	e8 18 fd ff ff       	callq  400dc0 <random@plt>
  4010a8:	eb 05                	jmp    4010af <initialize_target+0x7f>
  4010aa:	b8 00 00 00 00       	mov    $0x0,%eax
  4010af:	01 c3                	add    %eax,%ebx
  4010b1:	0f b7 db             	movzwl %bx,%ebx
  4010b4:	8d 04 dd 00 01 00 00 	lea    0x100(,%rbx,8),%eax
  4010bb:	89 c0                	mov    %eax,%eax
  4010bd:	48 89 05 bc 48 20 00 	mov    %rax,0x2048bc(%rip)        # 605980 <buf_offset>
  4010c4:	c6 05 5d 55 20 00 72 	movb   $0x72,0x20555d(%rip)        # 606628 <target_prefix>
  4010cb:	83 3d b6 48 20 00 00 	cmpl   $0x0,0x2048b6(%rip)        # 605988 <notify>
  4010d2:	0f 84 bb 00 00 00    	je     401193 <initialize_target+0x163>
  4010d8:	83 3d 29 49 20 00 00 	cmpl   $0x0,0x204929(%rip)        # 605a08 <is_checker>
  4010df:	0f 85 ae 00 00 00    	jne    401193 <initialize_target+0x163>
  4010e5:	be 00 01 00 00       	mov    $0x100,%esi
  4010ea:	48 89 e7             	mov    %rsp,%rdi
  4010ed:	e8 4e fd ff ff       	callq  400e40 <gethostname@plt>
  4010f2:	85 c0                	test   %eax,%eax
  4010f4:	74 25                	je     40111b <initialize_target+0xeb>
  4010f6:	bf 18 31 40 00       	mov    $0x403118,%edi
  4010fb:	e8 d0 fb ff ff       	callq  400cd0 <puts@plt>
  401100:	bf 08 00 00 00       	mov    $0x8,%edi
  401105:	e8 46 fd ff ff       	callq  400e50 <exit@plt>
  40110a:	48 89 e6             	mov    %rsp,%rsi
  40110d:	e8 6e fb ff ff       	callq  400c80 <strcasecmp@plt>
  401112:	85 c0                	test   %eax,%eax
  401114:	74 21                	je     401137 <initialize_target+0x107>
  401116:	83 c3 01             	add    $0x1,%ebx
  401119:	eb 05                	jmp    401120 <initialize_target+0xf0>
  40111b:	bb 00 00 00 00       	mov    $0x0,%ebx
  401120:	48 63 c3             	movslq %ebx,%rax
  401123:	48 8b 3c c5 80 51 60 	mov    0x605180(,%rax,8),%rdi
  40112a:	00 
  40112b:	48 85 ff             	test   %rdi,%rdi
  40112e:	75 da                	jne    40110a <initialize_target+0xda>
  401130:	b8 00 00 00 00       	mov    $0x0,%eax
  401135:	eb 05                	jmp    40113c <initialize_target+0x10c>
  401137:	b8 01 00 00 00       	mov    $0x1,%eax
  40113c:	85 c0                	test   %eax,%eax
  40113e:	75 1c                	jne    40115c <initialize_target+0x12c>
  401140:	48 89 e2             	mov    %rsp,%rdx
  401143:	be 50 31 40 00       	mov    $0x403150,%esi
  401148:	bf 01 00 00 00       	mov    $0x1,%edi
  40114d:	e8 ae fc ff ff       	callq  400e00 <__printf_chk@plt>
  401152:	bf 08 00 00 00       	mov    $0x8,%edi
  401157:	e8 f4 fc ff ff       	callq  400e50 <exit@plt>
  40115c:	48 8d bc 24 00 01 00 	lea    0x100(%rsp),%rdi
  401163:	00 
  401164:	e8 92 1b 00 00       	callq  402cfb <init_driver>
  401169:	85 c0                	test   %eax,%eax
  40116b:	79 26                	jns    401193 <initialize_target+0x163>
  40116d:	48 8d 94 24 00 01 00 	lea    0x100(%rsp),%rdx
  401174:	00 
  401175:	be 90 31 40 00       	mov    $0x403190,%esi
  40117a:	bf 01 00 00 00       	mov    $0x1,%edi
  40117f:	b8 00 00 00 00       	mov    $0x0,%eax
  401184:	e8 77 fc ff ff       	callq  400e00 <__printf_chk@plt>
  401189:	bf 08 00 00 00       	mov    $0x8,%edi
  40118e:	e8 bd fc ff ff       	callq  400e50 <exit@plt>
  401193:	48 8b 84 24 08 21 00 	mov    0x2108(%rsp),%rax
  40119a:	00 
  40119b:	64 48 33 04 25 28 00 	xor    %fs:0x28,%rax
  4011a2:	00 00 
  4011a4:	74 05                	je     4011ab <initialize_target+0x17b>
  4011a6:	e8 45 fb ff ff       	callq  400cf0 <__stack_chk_fail@plt>
  4011ab:	48 81 c4 18 21 00 00 	add    $0x2118,%rsp
  4011b2:	5b                   	pop    %rbx
  4011b3:	5d                   	pop    %rbp
  4011b4:	c3                   	retq   

00000000004011b5 <main>:
  4011b5:	41 56                	push   %r14
  4011b7:	41 55                	push   %r13
  4011b9:	41 54                	push   %r12
  4011bb:	55                   	push   %rbp
  4011bc:	53                   	push   %rbx
  4011bd:	41 89 fc             	mov    %edi,%r12d
  4011c0:	48 89 f3             	mov    %rsi,%rbx
  4011c3:	be 36 20 40 00       	mov    $0x402036,%esi
  4011c8:	bf 0b 00 00 00       	mov    $0xb,%edi
  4011cd:	e8 8e fb ff ff       	callq  400d60 <signal@plt>
  4011d2:	be e8 1f 40 00       	mov    $0x401fe8,%esi
  4011d7:	bf 07 00 00 00       	mov    $0x7,%edi
  4011dc:	e8 7f fb ff ff       	callq  400d60 <signal@plt>
  4011e1:	be 84 20 40 00       	mov    $0x402084,%esi
  4011e6:	bf 04 00 00 00       	mov    $0x4,%edi
  4011eb:	e8 70 fb ff ff       	callq  400d60 <signal@plt>
  4011f0:	83 3d 11 48 20 00 00 	cmpl   $0x0,0x204811(%rip)        # 605a08 <is_checker>
  4011f7:	74 20                	je     401219 <main+0x64>
  4011f9:	be d2 20 40 00       	mov    $0x4020d2,%esi
  4011fe:	bf 0e 00 00 00       	mov    $0xe,%edi
  401203:	e8 58 fb ff ff       	callq  400d60 <signal@plt>
  401208:	bf 05 00 00 00       	mov    $0x5,%edi
  40120d:	e8 0e fb ff ff       	callq  400d20 <alarm@plt>
  401212:	bd 5a 32 40 00       	mov    $0x40325a,%ebp
  401217:	eb 05                	jmp    40121e <main+0x69>
  401219:	bd 55 32 40 00       	mov    $0x403255,%ebp
  40121e:	48 8b 05 7b 47 20 00 	mov    0x20477b(%rip),%rax        # 6059a0 <stdin@@GLIBC_2.2.5>
  401225:	48 89 05 c4 47 20 00 	mov    %rax,0x2047c4(%rip)        # 6059f0 <infile>
  40122c:	41 bd 00 00 00 00    	mov    $0x0,%r13d
  401232:	41 be 00 00 00 00    	mov    $0x0,%r14d
  401238:	e9 c6 00 00 00       	jmpq   401303 <main+0x14e>
  40123d:	83 e8 61             	sub    $0x61,%eax
  401240:	3c 10                	cmp    $0x10,%al
  401242:	0f 87 9c 00 00 00    	ja     4012e4 <main+0x12f>
  401248:	0f b6 c0             	movzbl %al,%eax
  40124b:	ff 24 c5 a0 32 40 00 	jmpq   *0x4032a0(,%rax,8)
  401252:	48 8b 3b             	mov    (%rbx),%rdi
  401255:	e8 4c fd ff ff       	callq  400fa6 <usage>
  40125a:	be 9a 38 40 00       	mov    $0x40389a,%esi
  40125f:	48 8b 3d 42 47 20 00 	mov    0x204742(%rip),%rdi        # 6059a8 <optarg@@GLIBC_2.2.5>
  401266:	e8 a5 fb ff ff       	callq  400e10 <fopen@plt>
  40126b:	48 89 05 7e 47 20 00 	mov    %rax,0x20477e(%rip)        # 6059f0 <infile>
  401272:	48 85 c0             	test   %rax,%rax
  401275:	0f 85 88 00 00 00    	jne    401303 <main+0x14e>
  40127b:	48 8b 0d 26 47 20 00 	mov    0x204726(%rip),%rcx        # 6059a8 <optarg@@GLIBC_2.2.5>
  401282:	ba 62 32 40 00       	mov    $0x403262,%edx
  401287:	be 01 00 00 00       	mov    $0x1,%esi
  40128c:	48 8b 3d 2d 47 20 00 	mov    0x20472d(%rip),%rdi        # 6059c0 <stderr@@GLIBC_2.2.5>
  401293:	e8 d8 fb ff ff       	callq  400e70 <__fprintf_chk@plt>
  401298:	b8 01 00 00 00       	mov    $0x1,%eax
  40129d:	e9 e4 00 00 00       	jmpq   401386 <main+0x1d1>
  4012a2:	ba 10 00 00 00       	mov    $0x10,%edx
  4012a7:	be 00 00 00 00       	mov    $0x0,%esi
  4012ac:	48 8b 3d f5 46 20 00 	mov    0x2046f5(%rip),%rdi        # 6059a8 <optarg@@GLIBC_2.2.5>
  4012b3:	e8 78 fb ff ff       	callq  400e30 <strtoul@plt>
  4012b8:	41 89 c6             	mov    %eax,%r14d
  4012bb:	eb 46                	jmp    401303 <main+0x14e>
  4012bd:	ba 0a 00 00 00       	mov    $0xa,%edx
  4012c2:	be 00 00 00 00       	mov    $0x0,%esi
  4012c7:	48 8b 3d da 46 20 00 	mov    0x2046da(%rip),%rdi        # 6059a8 <optarg@@GLIBC_2.2.5>
  4012ce:	e8 bd fa ff ff       	callq  400d90 <strtol@plt>
  4012d3:	41 89 c5             	mov    %eax,%r13d
  4012d6:	eb 2b                	jmp    401303 <main+0x14e>
  4012d8:	c7 05 a6 46 20 00 00 	movl   $0x0,0x2046a6(%rip)        # 605988 <notify>
  4012df:	00 00 00 
  4012e2:	eb 1f                	jmp    401303 <main+0x14e>
  4012e4:	0f be d2             	movsbl %dl,%edx
  4012e7:	be 7f 32 40 00       	mov    $0x40327f,%esi
  4012ec:	bf 01 00 00 00       	mov    $0x1,%edi
  4012f1:	b8 00 00 00 00       	mov    $0x0,%eax
  4012f6:	e8 05 fb ff ff       	callq  400e00 <__printf_chk@plt>
  4012fb:	48 8b 3b             	mov    (%rbx),%rdi
  4012fe:	e8 a3 fc ff ff       	callq  400fa6 <usage>
  401303:	48 89 ea             	mov    %rbp,%rdx
  401306:	48 89 de             	mov    %rbx,%rsi
  401309:	44 89 e7             	mov    %r12d,%edi
  40130c:	e8 0f fb ff ff       	callq  400e20 <getopt@plt>
  401311:	89 c2                	mov    %eax,%edx
  401313:	3c ff                	cmp    $0xff,%al
  401315:	0f 85 22 ff ff ff    	jne    40123d <main+0x88>
  40131b:	be 01 00 00 00       	mov    $0x1,%esi
  401320:	44 89 ef             	mov    %r13d,%edi
  401323:	e8 08 fd ff ff       	callq  401030 <initialize_target>
  401328:	83 3d d9 46 20 00 00 	cmpl   $0x0,0x2046d9(%rip)        # 605a08 <is_checker>
  40132f:	74 2a                	je     40135b <main+0x1a6>
  401331:	44 3b 35 c8 46 20 00 	cmp    0x2046c8(%rip),%r14d        # 605a00 <authkey>
  401338:	74 21                	je     40135b <main+0x1a6>
  40133a:	44 89 f2             	mov    %r14d,%edx
  40133d:	be b8 31 40 00       	mov    $0x4031b8,%esi
  401342:	bf 01 00 00 00       	mov    $0x1,%edi
  401347:	b8 00 00 00 00       	mov    $0x0,%eax
  40134c:	e8 af fa ff ff       	callq  400e00 <__printf_chk@plt>
  401351:	b8 00 00 00 00       	mov    $0x0,%eax
  401356:	e8 29 09 00 00       	callq  401c84 <check_fail>
  40135b:	8b 15 a3 46 20 00    	mov    0x2046a3(%rip),%edx        # 605a04 <cookie>
  401361:	be 92 32 40 00       	mov    $0x403292,%esi
  401366:	bf 01 00 00 00       	mov    $0x1,%edi
  40136b:	b8 00 00 00 00       	mov    $0x0,%eax
  401370:	e8 8b fa ff ff       	callq  400e00 <__printf_chk@plt>
  401375:	48 8b 3d 04 46 20 00 	mov    0x204604(%rip),%rdi        # 605980 <buf_offset>
  40137c:	e8 a4 0d 00 00       	callq  402125 <launch>
  401381:	b8 00 00 00 00       	mov    $0x0,%eax
  401386:	5b                   	pop    %rbx
  401387:	5d                   	pop    %rbp
  401388:	41 5c                	pop    %r12
  40138a:	41 5d                	pop    %r13
  40138c:	41 5e                	pop    %r14
  40138e:	c3                   	retq   

000000000040138f <scramble>:
  40138f:	48 83 ec 38          	sub    $0x38,%rsp
  401393:	64 48 8b 04 25 28 00 	mov    %fs:0x28,%rax
  40139a:	00 00 
  40139c:	48 89 44 24 28       	mov    %rax,0x28(%rsp)
  4013a1:	31 c0                	xor    %eax,%eax
  4013a3:	eb 10                	jmp    4013b5 <scramble+0x26>
  4013a5:	69 d0 ee 55 00 00    	imul   $0x55ee,%eax,%edx
  4013ab:	01 fa                	add    %edi,%edx
  4013ad:	89 c1                	mov    %eax,%ecx
  4013af:	89 14 8c             	mov    %edx,(%rsp,%rcx,4)
  4013b2:	83 c0 01             	add    $0x1,%eax
  4013b5:	83 f8 09             	cmp    $0x9,%eax
  4013b8:	76 eb                	jbe    4013a5 <scramble+0x16>
  4013ba:	8b 44 24 04          	mov    0x4(%rsp),%eax
  4013be:	69 c0 79 f1 00 00    	imul   $0xf179,%eax,%eax
  4013c4:	89 44 24 04          	mov    %eax,0x4(%rsp)
  4013c8:	8b 44 24 14          	mov    0x14(%rsp),%eax
  4013cc:	69 c0 5f e2 00 00    	imul   $0xe25f,%eax,%eax
  4013d2:	89 44 24 14          	mov    %eax,0x14(%rsp)
  4013d6:	8b 44 24 1c          	mov    0x1c(%rsp),%eax
  4013da:	69 c0 9c 1d 00 00    	imul   $0x1d9c,%eax,%eax
  4013e0:	89 44 24 1c          	mov    %eax,0x1c(%rsp)
  4013e4:	8b 44 24 14          	mov    0x14(%rsp),%eax
  4013e8:	69 c0 5c 02 00 00    	imul   $0x25c,%eax,%eax
  4013ee:	89 44 24 14          	mov    %eax,0x14(%rsp)
  4013f2:	8b 44 24 04          	mov    0x4(%rsp),%eax
  4013f6:	69 c0 aa 50 00 00    	imul   $0x50aa,%eax,%eax
  4013fc:	89 44 24 04          	mov    %eax,0x4(%rsp)
  401400:	8b 44 24 14          	mov    0x14(%rsp),%eax
  401404:	69 c0 7b e9 00 00    	imul   $0xe97b,%eax,%eax
  40140a:	89 44 24 14          	mov    %eax,0x14(%rsp)
  40140e:	8b 44 24 20          	mov    0x20(%rsp),%eax
  401412:	69 c0 3d 14 00 00    	imul   $0x143d,%eax,%eax
  401418:	89 44 24 20          	mov    %eax,0x20(%rsp)
  40141c:	8b 44 24 04          	mov    0x4(%rsp),%eax
  401420:	69 c0 f1 90 00 00    	imul   $0x90f1,%eax,%eax
  401426:	89 44 24 04          	mov    %eax,0x4(%rsp)
  40142a:	8b 44 24 14          	mov    0x14(%rsp),%eax
  40142e:	69 c0 af be 00 00    	imul   $0xbeaf,%eax,%eax
  401434:	89 44 24 14          	mov    %eax,0x14(%rsp)
  401438:	8b 44 24 10          	mov    0x10(%rsp),%eax
  40143c:	69 c0 18 d4 00 00    	imul   $0xd418,%eax,%eax
  401442:	89 44 24 10          	mov    %eax,0x10(%rsp)
  401446:	8b 04 24             	mov    (%rsp),%eax
  401449:	69 c0 db b4 00 00    	imul   $0xb4db,%eax,%eax
  40144f:	89 04 24             	mov    %eax,(%rsp)
  401452:	8b 44 24 18          	mov    0x18(%rsp),%eax
  401456:	69 c0 db 37 00 00    	imul   $0x37db,%eax,%eax
  40145c:	89 44 24 18          	mov    %eax,0x18(%rsp)
  401460:	8b 44 24 1c          	mov    0x1c(%rsp),%eax
  401464:	69 c0 44 b0 00 00    	imul   $0xb044,%eax,%eax
  40146a:	89 44 24 1c          	mov    %eax,0x1c(%rsp)
  40146e:	8b 04 24             	mov    (%rsp),%eax
  401471:	69 c0 88 c1 00 00    	imul   $0xc188,%eax,%eax
  401477:	89 04 24             	mov    %eax,(%rsp)
  40147a:	8b 44 24 24          	mov    0x24(%rsp),%eax
  40147e:	69 c0 50 70 00 00    	imul   $0x7050,%eax,%eax
  401484:	89 44 24 24          	mov    %eax,0x24(%rsp)
  401488:	8b 44 24 10          	mov    0x10(%rsp),%eax
  40148c:	69 c0 10 2d 00 00    	imul   $0x2d10,%eax,%eax
  401492:	89 44 24 10          	mov    %eax,0x10(%rsp)
  401496:	8b 44 24 24          	mov    0x24(%rsp),%eax
  40149a:	69 c0 64 54 00 00    	imul   $0x5464,%eax,%eax
  4014a0:	89 44 24 24          	mov    %eax,0x24(%rsp)
  4014a4:	8b 44 24 18          	mov    0x18(%rsp),%eax
  4014a8:	69 c0 e3 63 00 00    	imul   $0x63e3,%eax,%eax
  4014ae:	89 44 24 18          	mov    %eax,0x18(%rsp)
  4014b2:	8b 44 24 1c          	mov    0x1c(%rsp),%eax
  4014b6:	69 c0 9e a6 00 00    	imul   $0xa69e,%eax,%eax
  4014bc:	89 44 24 1c          	mov    %eax,0x1c(%rsp)
  4014c0:	8b 44 24 24          	mov    0x24(%rsp),%eax
  4014c4:	69 c0 2f 30 00 00    	imul   $0x302f,%eax,%eax
  4014ca:	89 44 24 24          	mov    %eax,0x24(%rsp)
  4014ce:	8b 04 24             	mov    (%rsp),%eax
  4014d1:	69 c0 88 b0 00 00    	imul   $0xb088,%eax,%eax
  4014d7:	89 04 24             	mov    %eax,(%rsp)
  4014da:	8b 44 24 04          	mov    0x4(%rsp),%eax
  4014de:	69 c0 8e a4 00 00    	imul   $0xa48e,%eax,%eax
  4014e4:	89 44 24 04          	mov    %eax,0x4(%rsp)
  4014e8:	8b 44 24 0c          	mov    0xc(%rsp),%eax
  4014ec:	69 c0 f8 ba 00 00    	imul   $0xbaf8,%eax,%eax
  4014f2:	89 44 24 0c          	mov    %eax,0xc(%rsp)
  4014f6:	8b 44 24 20          	mov    0x20(%rsp),%eax
  4014fa:	69 c0 91 39 00 00    	imul   $0x3991,%eax,%eax
  401500:	89 44 24 20          	mov    %eax,0x20(%rsp)
  401504:	8b 44 24 24          	mov    0x24(%rsp),%eax
  401508:	69 c0 16 9d 00 00    	imul   $0x9d16,%eax,%eax
  40150e:	89 44 24 24          	mov    %eax,0x24(%rsp)
  401512:	8b 44 24 1c          	mov    0x1c(%rsp),%eax
  401516:	69 c0 e0 46 00 00    	imul   $0x46e0,%eax,%eax
  40151c:	89 44 24 1c          	mov    %eax,0x1c(%rsp)
  401520:	8b 44 24 0c          	mov    0xc(%rsp),%eax
  401524:	69 c0 d5 fa 00 00    	imul   $0xfad5,%eax,%eax
  40152a:	89 44 24 0c          	mov    %eax,0xc(%rsp)
  40152e:	8b 44 24 10          	mov    0x10(%rsp),%eax
  401532:	69 c0 55 98 00 00    	imul   $0x9855,%eax,%eax
  401538:	89 44 24 10          	mov    %eax,0x10(%rsp)
  40153c:	8b 44 24 20          	mov    0x20(%rsp),%eax
  401540:	69 c0 54 f8 00 00    	imul   $0xf854,%eax,%eax
  401546:	89 44 24 20          	mov    %eax,0x20(%rsp)
  40154a:	8b 44 24 14          	mov    0x14(%rsp),%eax
  40154e:	69 c0 3c 82 00 00    	imul   $0x823c,%eax,%eax
  401554:	89 44 24 14          	mov    %eax,0x14(%rsp)
  401558:	8b 44 24 20          	mov    0x20(%rsp),%eax
  40155c:	69 c0 83 ee 00 00    	imul   $0xee83,%eax,%eax
  401562:	89 44 24 20          	mov    %eax,0x20(%rsp)
  401566:	8b 44 24 04          	mov    0x4(%rsp),%eax
  40156a:	69 c0 6f ca 00 00    	imul   $0xca6f,%eax,%eax
  401570:	89 44 24 04          	mov    %eax,0x4(%rsp)
  401574:	8b 44 24 08          	mov    0x8(%rsp),%eax
  401578:	69 c0 bb be 00 00    	imul   $0xbebb,%eax,%eax
  40157e:	89 44 24 08          	mov    %eax,0x8(%rsp)
  401582:	8b 04 24             	mov    (%rsp),%eax
  401585:	69 c0 e8 b4 00 00    	imul   $0xb4e8,%eax,%eax
  40158b:	89 04 24             	mov    %eax,(%rsp)
  40158e:	8b 44 24 04          	mov    0x4(%rsp),%eax
  401592:	69 c0 91 94 00 00    	imul   $0x9491,%eax,%eax
  401598:	89 44 24 04          	mov    %eax,0x4(%rsp)
  40159c:	8b 44 24 04          	mov    0x4(%rsp),%eax
  4015a0:	69 c0 a3 5c 00 00    	imul   $0x5ca3,%eax,%eax
  4015a6:	89 44 24 04          	mov    %eax,0x4(%rsp)
  4015aa:	8b 44 24 1c          	mov    0x1c(%rsp),%eax
  4015ae:	69 c0 c2 fe 00 00    	imul   $0xfec2,%eax,%eax
  4015b4:	89 44 24 1c          	mov    %eax,0x1c(%rsp)
  4015b8:	8b 04 24             	mov    (%rsp),%eax
  4015bb:	69 c0 de 09 00 00    	imul   $0x9de,%eax,%eax
  4015c1:	89 04 24             	mov    %eax,(%rsp)
  4015c4:	8b 44 24 24          	mov    0x24(%rsp),%eax
  4015c8:	69 c0 b1 36 00 00    	imul   $0x36b1,%eax,%eax
  4015ce:	89 44 24 24          	mov    %eax,0x24(%rsp)
  4015d2:	8b 44 24 0c          	mov    0xc(%rsp),%eax
  4015d6:	69 c0 62 33 00 00    	imul   $0x3362,%eax,%eax
  4015dc:	89 44 24 0c          	mov    %eax,0xc(%rsp)
  4015e0:	8b 44 24 08          	mov    0x8(%rsp),%eax
  4015e4:	69 c0 18 51 00 00    	imul   $0x5118,%eax,%eax
  4015ea:	89 44 24 08          	mov    %eax,0x8(%rsp)
  4015ee:	8b 44 24 08          	mov    0x8(%rsp),%eax
  4015f2:	69 c0 b9 25 00 00    	imul   $0x25b9,%eax,%eax
  4015f8:	89 44 24 08          	mov    %eax,0x8(%rsp)
  4015fc:	8b 44 24 18          	mov    0x18(%rsp),%eax
  401600:	69 c0 fe f8 00 00    	imul   $0xf8fe,%eax,%eax
  401606:	89 44 24 18          	mov    %eax,0x18(%rsp)
  40160a:	8b 44 24 20          	mov    0x20(%rsp),%eax
  40160e:	69 c0 08 f7 00 00    	imul   $0xf708,%eax,%eax
  401614:	89 44 24 20          	mov    %eax,0x20(%rsp)
  401618:	8b 44 24 08          	mov    0x8(%rsp),%eax
  40161c:	69 c0 ec 17 00 00    	imul   $0x17ec,%eax,%eax
  401622:	89 44 24 08          	mov    %eax,0x8(%rsp)
  401626:	8b 44 24 0c          	mov    0xc(%rsp),%eax
  40162a:	69 c0 f7 59 00 00    	imul   $0x59f7,%eax,%eax
  401630:	89 44 24 0c          	mov    %eax,0xc(%rsp)
  401634:	8b 44 24 18          	mov    0x18(%rsp),%eax
  401638:	69 c0 90 28 00 00    	imul   $0x2890,%eax,%eax
  40163e:	89 44 24 18          	mov    %eax,0x18(%rsp)
  401642:	8b 44 24 0c          	mov    0xc(%rsp),%eax
  401646:	69 c0 57 49 00 00    	imul   $0x4957,%eax,%eax
  40164c:	89 44 24 0c          	mov    %eax,0xc(%rsp)
  401650:	8b 44 24 0c          	mov    0xc(%rsp),%eax
  401654:	69 c0 b8 52 00 00    	imul   $0x52b8,%eax,%eax
  40165a:	89 44 24 0c          	mov    %eax,0xc(%rsp)
  40165e:	8b 44 24 04          	mov    0x4(%rsp),%eax
  401662:	69 c0 a5 4c 00 00    	imul   $0x4ca5,%eax,%eax
  401668:	89 44 24 04          	mov    %eax,0x4(%rsp)
  40166c:	8b 44 24 10          	mov    0x10(%rsp),%eax
  401670:	69 c0 56 e3 00 00    	imul   $0xe356,%eax,%eax
  401676:	89 44 24 10          	mov    %eax,0x10(%rsp)
  40167a:	8b 44 24 20          	mov    0x20(%rsp),%eax
  40167e:	69 c0 62 2c 00 00    	imul   $0x2c62,%eax,%eax
  401684:	89 44 24 20          	mov    %eax,0x20(%rsp)
  401688:	8b 44 24 24          	mov    0x24(%rsp),%eax
  40168c:	69 c0 7a aa 00 00    	imul   $0xaa7a,%eax,%eax
  401692:	89 44 24 24          	mov    %eax,0x24(%rsp)
  401696:	8b 44 24 1c          	mov    0x1c(%rsp),%eax
  40169a:	69 c0 d3 9b 00 00    	imul   $0x9bd3,%eax,%eax
  4016a0:	89 44 24 1c          	mov    %eax,0x1c(%rsp)
  4016a4:	8b 44 24 04          	mov    0x4(%rsp),%eax
  4016a8:	69 c0 b0 79 00 00    	imul   $0x79b0,%eax,%eax
  4016ae:	89 44 24 04          	mov    %eax,0x4(%rsp)
  4016b2:	8b 44 24 04          	mov    0x4(%rsp),%eax
  4016b6:	69 c0 f2 b4 00 00    	imul   $0xb4f2,%eax,%eax
  4016bc:	89 44 24 04          	mov    %eax,0x4(%rsp)
  4016c0:	8b 44 24 0c          	mov    0xc(%rsp),%eax
  4016c4:	69 c0 78 49 00 00    	imul   $0x4978,%eax,%eax
  4016ca:	89 44 24 0c          	mov    %eax,0xc(%rsp)
  4016ce:	8b 04 24             	mov    (%rsp),%eax
  4016d1:	69 c0 b7 16 00 00    	imul   $0x16b7,%eax,%eax
  4016d7:	89 04 24             	mov    %eax,(%rsp)
  4016da:	8b 44 24 04          	mov    0x4(%rsp),%eax
  4016de:	69 c0 ba 98 00 00    	imul   $0x98ba,%eax,%eax
  4016e4:	89 44 24 04          	mov    %eax,0x4(%rsp)
  4016e8:	8b 44 24 18          	mov    0x18(%rsp),%eax
  4016ec:	69 c0 c8 33 00 00    	imul   $0x33c8,%eax,%eax
  4016f2:	89 44 24 18          	mov    %eax,0x18(%rsp)
  4016f6:	8b 44 24 18          	mov    0x18(%rsp),%eax
  4016fa:	69 c0 03 87 00 00    	imul   $0x8703,%eax,%eax
  401700:	89 44 24 18          	mov    %eax,0x18(%rsp)
  401704:	8b 44 24 1c          	mov    0x1c(%rsp),%eax
  401708:	69 c0 16 b7 00 00    	imul   $0xb716,%eax,%eax
  40170e:	89 44 24 1c          	mov    %eax,0x1c(%rsp)
  401712:	8b 44 24 14          	mov    0x14(%rsp),%eax
  401716:	69 c0 26 b2 00 00    	imul   $0xb226,%eax,%eax
  40171c:	89 44 24 14          	mov    %eax,0x14(%rsp)
  401720:	8b 44 24 14          	mov    0x14(%rsp),%eax
  401724:	69 c0 de 96 00 00    	imul   $0x96de,%eax,%eax
  40172a:	89 44 24 14          	mov    %eax,0x14(%rsp)
  40172e:	8b 44 24 10          	mov    0x10(%rsp),%eax
  401732:	69 c0 ac fe 00 00    	imul   $0xfeac,%eax,%eax
  401738:	89 44 24 10          	mov    %eax,0x10(%rsp)
  40173c:	8b 44 24 18          	mov    0x18(%rsp),%eax
  401740:	69 c0 28 ec 00 00    	imul   $0xec28,%eax,%eax
  401746:	89 44 24 18          	mov    %eax,0x18(%rsp)
  40174a:	8b 44 24 24          	mov    0x24(%rsp),%eax
  40174e:	69 c0 cc 8c 00 00    	imul   $0x8ccc,%eax,%eax
  401754:	89 44 24 24          	mov    %eax,0x24(%rsp)
  401758:	8b 44 24 10          	mov    0x10(%rsp),%eax
  40175c:	69 c0 1b c4 00 00    	imul   $0xc41b,%eax,%eax
  401762:	89 44 24 10          	mov    %eax,0x10(%rsp)
  401766:	8b 44 24 18          	mov    0x18(%rsp),%eax
  40176a:	69 c0 cc 4e 00 00    	imul   $0x4ecc,%eax,%eax
  401770:	89 44 24 18          	mov    %eax,0x18(%rsp)
  401774:	8b 44 24 20          	mov    0x20(%rsp),%eax
  401778:	69 c0 71 18 00 00    	imul   $0x1871,%eax,%eax
  40177e:	89 44 24 20          	mov    %eax,0x20(%rsp)
  401782:	8b 44 24 10          	mov    0x10(%rsp),%eax
  401786:	69 c0 23 2f 00 00    	imul   $0x2f23,%eax,%eax
  40178c:	89 44 24 10          	mov    %eax,0x10(%rsp)
  401790:	8b 44 24 04          	mov    0x4(%rsp),%eax
  401794:	69 c0 45 93 00 00    	imul   $0x9345,%eax,%eax
  40179a:	89 44 24 04          	mov    %eax,0x4(%rsp)
  40179e:	8b 44 24 10          	mov    0x10(%rsp),%eax
  4017a2:	69 c0 0f a8 00 00    	imul   $0xa80f,%eax,%eax
  4017a8:	89 44 24 10          	mov    %eax,0x10(%rsp)
  4017ac:	8b 44 24 24          	mov    0x24(%rsp),%eax
  4017b0:	69 c0 11 bb 00 00    	imul   $0xbb11,%eax,%eax
  4017b6:	89 44 24 24          	mov    %eax,0x24(%rsp)
  4017ba:	8b 44 24 18          	mov    0x18(%rsp),%eax
  4017be:	69 c0 bb b7 00 00    	imul   $0xb7bb,%eax,%eax
  4017c4:	89 44 24 18          	mov    %eax,0x18(%rsp)
  4017c8:	8b 04 24             	mov    (%rsp),%eax
  4017cb:	69 c0 70 f1 00 00    	imul   $0xf170,%eax,%eax
  4017d1:	89 04 24             	mov    %eax,(%rsp)
  4017d4:	8b 44 24 20          	mov    0x20(%rsp),%eax
  4017d8:	69 c0 9a 7c 00 00    	imul   $0x7c9a,%eax,%eax
  4017de:	89 44 24 20          	mov    %eax,0x20(%rsp)
  4017e2:	8b 44 24 20          	mov    0x20(%rsp),%eax
  4017e6:	69 c0 51 ee 00 00    	imul   $0xee51,%eax,%eax
  4017ec:	89 44 24 20          	mov    %eax,0x20(%rsp)
  4017f0:	8b 04 24             	mov    (%rsp),%eax
  4017f3:	69 c0 f3 a8 00 00    	imul   $0xa8f3,%eax,%eax
  4017f9:	89 04 24             	mov    %eax,(%rsp)
  4017fc:	8b 44 24 14          	mov    0x14(%rsp),%eax
  401800:	69 c0 9f 33 00 00    	imul   $0x339f,%eax,%eax
  401806:	89 44 24 14          	mov    %eax,0x14(%rsp)
  40180a:	8b 44 24 08          	mov    0x8(%rsp),%eax
  40180e:	69 c0 b4 68 00 00    	imul   $0x68b4,%eax,%eax
  401814:	89 44 24 08          	mov    %eax,0x8(%rsp)
  401818:	8b 44 24 20          	mov    0x20(%rsp),%eax
  40181c:	69 c0 a1 89 00 00    	imul   $0x89a1,%eax,%eax
  401822:	89 44 24 20          	mov    %eax,0x20(%rsp)
  401826:	8b 44 24 18          	mov    0x18(%rsp),%eax
  40182a:	69 c0 53 38 00 00    	imul   $0x3853,%eax,%eax
  401830:	89 44 24 18          	mov    %eax,0x18(%rsp)
  401834:	8b 44 24 04          	mov    0x4(%rsp),%eax
  401838:	69 c0 c7 2c 00 00    	imul   $0x2cc7,%eax,%eax
  40183e:	89 44 24 04          	mov    %eax,0x4(%rsp)
  401842:	8b 44 24 18          	mov    0x18(%rsp),%eax
  401846:	69 c0 aa ad 00 00    	imul   $0xadaa,%eax,%eax
  40184c:	89 44 24 18          	mov    %eax,0x18(%rsp)
  401850:	8b 04 24             	mov    (%rsp),%eax
  401853:	69 c0 9b 4f 00 00    	imul   $0x4f9b,%eax,%eax
  401859:	89 04 24             	mov    %eax,(%rsp)
  40185c:	8b 44 24 14          	mov    0x14(%rsp),%eax
  401860:	69 c0 9c 12 00 00    	imul   $0x129c,%eax,%eax
  401866:	89 44 24 14          	mov    %eax,0x14(%rsp)
  40186a:	8b 44 24 08          	mov    0x8(%rsp),%eax
  40186e:	69 c0 69 55 00 00    	imul   $0x5569,%eax,%eax
  401874:	89 44 24 08          	mov    %eax,0x8(%rsp)
  401878:	8b 44 24 24          	mov    0x24(%rsp),%eax
  40187c:	69 c0 dd 8c 00 00    	imul   $0x8cdd,%eax,%eax
  401882:	89 44 24 24          	mov    %eax,0x24(%rsp)
  401886:	8b 44 24 24          	mov    0x24(%rsp),%eax
  40188a:	69 c0 75 fb 00 00    	imul   $0xfb75,%eax,%eax
  401890:	89 44 24 24          	mov    %eax,0x24(%rsp)
  401894:	8b 44 24 04          	mov    0x4(%rsp),%eax
  401898:	69 c0 55 ff 00 00    	imul   $0xff55,%eax,%eax
  40189e:	89 44 24 04          	mov    %eax,0x4(%rsp)
  4018a2:	8b 44 24 24          	mov    0x24(%rsp),%eax
  4018a6:	69 c0 57 83 00 00    	imul   $0x8357,%eax,%eax
  4018ac:	89 44 24 24          	mov    %eax,0x24(%rsp)
  4018b0:	8b 44 24 04          	mov    0x4(%rsp),%eax
  4018b4:	69 c0 6b 95 00 00    	imul   $0x956b,%eax,%eax
  4018ba:	89 44 24 04          	mov    %eax,0x4(%rsp)
  4018be:	8b 44 24 10          	mov    0x10(%rsp),%eax
  4018c2:	69 c0 af aa 00 00    	imul   $0xaaaf,%eax,%eax
  4018c8:	89 44 24 10          	mov    %eax,0x10(%rsp)
  4018cc:	8b 44 24 0c          	mov    0xc(%rsp),%eax
  4018d0:	69 c0 d9 f6 00 00    	imul   $0xf6d9,%eax,%eax
  4018d6:	89 44 24 0c          	mov    %eax,0xc(%rsp)
  4018da:	ba 00 00 00 00       	mov    $0x0,%edx
  4018df:	b8 00 00 00 00       	mov    $0x0,%eax
  4018e4:	eb 0a                	jmp    4018f0 <scramble+0x561>
  4018e6:	89 d1                	mov    %edx,%ecx
  4018e8:	8b 0c 8c             	mov    (%rsp,%rcx,4),%ecx
  4018eb:	01 c8                	add    %ecx,%eax
  4018ed:	83 c2 01             	add    $0x1,%edx
  4018f0:	83 fa 09             	cmp    $0x9,%edx
  4018f3:	76 f1                	jbe    4018e6 <scramble+0x557>
  4018f5:	48 8b 74 24 28       	mov    0x28(%rsp),%rsi
  4018fa:	64 48 33 34 25 28 00 	xor    %fs:0x28,%rsi
  401901:	00 00 
  401903:	74 05                	je     40190a <scramble+0x57b>
  401905:	e8 e6 f3 ff ff       	callq  400cf0 <__stack_chk_fail@plt>
  40190a:	48 83 c4 38          	add    $0x38,%rsp
  40190e:	c3                   	retq   

000000000040190f <getbuf>:
  40190f:	48 83 ec 38          	sub    $0x38,%rsp
  401913:	48 89 e7             	mov    %rsp,%rdi
  401916:	e8 9e 03 00 00       	callq  401cb9 <Gets>
  40191b:	b8 01 00 00 00       	mov    $0x1,%eax
  401920:	48 83 c4 38          	add    $0x38,%rsp
  401924:	c3                   	retq   

0000000000401925 <touch1>:
  401925:	48 83 ec 08          	sub    $0x8,%rsp
  401929:	c7 05 c9 40 20 00 01 	movl   $0x1,0x2040c9(%rip)        # 6059fc <vlevel>
  401930:	00 00 00 
  401933:	bf 48 3a 40 00       	mov    $0x403a48,%edi
  401938:	e8 93 f3 ff ff       	callq  400cd0 <puts@plt>
  40193d:	bf 01 00 00 00       	mov    $0x1,%edi
  401942:	e8 b7 05 00 00       	callq  401efe <validate>
  401947:	bf 00 00 00 00       	mov    $0x0,%edi
  40194c:	e8 ff f4 ff ff       	callq  400e50 <exit@plt>

0000000000401951 <touch2>:
  401951:	48 83 ec 08          	sub    $0x8,%rsp
  401955:	89 fa                	mov    %edi,%edx
  401957:	c7 05 9b 40 20 00 02 	movl   $0x2,0x20409b(%rip)        # 6059fc <vlevel>
  40195e:	00 00 00 
  401961:	39 3d 9d 40 20 00    	cmp    %edi,0x20409d(%rip)        # 605a04 <cookie>
  401967:	75 20                	jne    401989 <touch2+0x38>
  401969:	be 70 3a 40 00       	mov    $0x403a70,%esi
  40196e:	bf 01 00 00 00       	mov    $0x1,%edi
  401973:	b8 00 00 00 00       	mov    $0x0,%eax
  401978:	e8 83 f4 ff ff       	callq  400e00 <__printf_chk@plt>
  40197d:	bf 02 00 00 00       	mov    $0x2,%edi
  401982:	e8 77 05 00 00       	callq  401efe <validate>
  401987:	eb 1e                	jmp    4019a7 <touch2+0x56>
  401989:	be 98 3a 40 00       	mov    $0x403a98,%esi
  40198e:	bf 01 00 00 00       	mov    $0x1,%edi
  401993:	b8 00 00 00 00       	mov    $0x0,%eax
  401998:	e8 63 f4 ff ff       	callq  400e00 <__printf_chk@plt>
  40199d:	bf 02 00 00 00       	mov    $0x2,%edi
  4019a2:	e8 19 06 00 00       	callq  401fc0 <fail>
  4019a7:	bf 00 00 00 00       	mov    $0x0,%edi
  4019ac:	e8 9f f4 ff ff       	callq  400e50 <exit@plt>

00000000004019b1 <hexmatch>:
  4019b1:	41 54                	push   %r12
  4019b3:	55                   	push   %rbp
  4019b4:	53                   	push   %rbx
  4019b5:	48 83 c4 80          	add    $0xffffffffffffff80,%rsp
  4019b9:	89 fd                	mov    %edi,%ebp
  4019bb:	48 89 f3             	mov    %rsi,%rbx
  4019be:	64 48 8b 04 25 28 00 	mov    %fs:0x28,%rax
  4019c5:	00 00 
  4019c7:	48 89 44 24 78       	mov    %rax,0x78(%rsp)
  4019cc:	31 c0                	xor    %eax,%eax
  4019ce:	e8 ed f3 ff ff       	callq  400dc0 <random@plt>
  4019d3:	48 89 c1             	mov    %rax,%rcx
  4019d6:	48 ba 0b d7 a3 70 3d 	movabs $0xa3d70a3d70a3d70b,%rdx
  4019dd:	0a d7 a3 
  4019e0:	48 f7 ea             	imul   %rdx
  4019e3:	48 01 ca             	add    %rcx,%rdx
  4019e6:	48 c1 fa 06          	sar    $0x6,%rdx
  4019ea:	48 89 c8             	mov    %rcx,%rax
  4019ed:	48 c1 f8 3f          	sar    $0x3f,%rax
  4019f1:	48 29 c2             	sub    %rax,%rdx
  4019f4:	48 8d 04 92          	lea    (%rdx,%rdx,4),%rax
  4019f8:	48 8d 14 80          	lea    (%rax,%rax,4),%rdx
  4019fc:	48 8d 04 95 00 00 00 	lea    0x0(,%rdx,4),%rax
  401a03:	00 
  401a04:	48 29 c1             	sub    %rax,%rcx
  401a07:	4c 8d 24 0c          	lea    (%rsp,%rcx,1),%r12
  401a0b:	41 89 e8             	mov    %ebp,%r8d
  401a0e:	b9 65 3a 40 00       	mov    $0x403a65,%ecx
  401a13:	48 c7 c2 ff ff ff ff 	mov    $0xffffffffffffffff,%rdx
  401a1a:	be 01 00 00 00       	mov    $0x1,%esi
  401a1f:	4c 89 e7             	mov    %r12,%rdi
  401a22:	b8 00 00 00 00       	mov    $0x0,%eax
  401a27:	e8 54 f4 ff ff       	callq  400e80 <__sprintf_chk@plt>
  401a2c:	ba 09 00 00 00       	mov    $0x9,%edx
  401a31:	4c 89 e6             	mov    %r12,%rsi
  401a34:	48 89 df             	mov    %rbx,%rdi
  401a37:	e8 74 f2 ff ff       	callq  400cb0 <strncmp@plt>
  401a3c:	85 c0                	test   %eax,%eax
  401a3e:	0f 94 c0             	sete   %al
  401a41:	48 8b 5c 24 78       	mov    0x78(%rsp),%rbx
  401a46:	64 48 33 1c 25 28 00 	xor    %fs:0x28,%rbx
  401a4d:	00 00 
  401a4f:	74 05                	je     401a56 <hexmatch+0xa5>
  401a51:	e8 9a f2 ff ff       	callq  400cf0 <__stack_chk_fail@plt>
  401a56:	0f b6 c0             	movzbl %al,%eax
  401a59:	48 83 ec 80          	sub    $0xffffffffffffff80,%rsp
  401a5d:	5b                   	pop    %rbx
  401a5e:	5d                   	pop    %rbp
  401a5f:	41 5c                	pop    %r12
  401a61:	c3                   	retq   

0000000000401a62 <touch3>:
  401a62:	53                   	push   %rbx
  401a63:	48 89 fb             	mov    %rdi,%rbx
  401a66:	c7 05 8c 3f 20 00 03 	movl   $0x3,0x203f8c(%rip)        # 6059fc <vlevel>
  401a6d:	00 00 00 
  401a70:	48 89 fe             	mov    %rdi,%rsi
  401a73:	8b 3d 8b 3f 20 00    	mov    0x203f8b(%rip),%edi        # 605a04 <cookie>
  401a79:	e8 33 ff ff ff       	callq  4019b1 <hexmatch>
  401a7e:	85 c0                	test   %eax,%eax
  401a80:	74 23                	je     401aa5 <touch3+0x43>
  401a82:	48 89 da             	mov    %rbx,%rdx
  401a85:	be c0 3a 40 00       	mov    $0x403ac0,%esi
  401a8a:	bf 01 00 00 00       	mov    $0x1,%edi
  401a8f:	b8 00 00 00 00       	mov    $0x0,%eax
  401a94:	e8 67 f3 ff ff       	callq  400e00 <__printf_chk@plt>
  401a99:	bf 03 00 00 00       	mov    $0x3,%edi
  401a9e:	e8 5b 04 00 00       	callq  401efe <validate>
  401aa3:	eb 21                	jmp    401ac6 <touch3+0x64>
  401aa5:	48 89 da             	mov    %rbx,%rdx
  401aa8:	be e8 3a 40 00       	mov    $0x403ae8,%esi
  401aad:	bf 01 00 00 00       	mov    $0x1,%edi
  401ab2:	b8 00 00 00 00       	mov    $0x0,%eax
  401ab7:	e8 44 f3 ff ff       	callq  400e00 <__printf_chk@plt>
  401abc:	bf 03 00 00 00       	mov    $0x3,%edi
  401ac1:	e8 fa 04 00 00       	callq  401fc0 <fail>
  401ac6:	bf 00 00 00 00       	mov    $0x0,%edi
  401acb:	e8 80 f3 ff ff       	callq  400e50 <exit@plt>

0000000000401ad0 <test>:
  401ad0:	48 83 ec 08          	sub    $0x8,%rsp
  401ad4:	b8 00 00 00 00       	mov    $0x0,%eax
  401ad9:	e8 31 fe ff ff       	callq  40190f <getbuf>
  401ade:	89 c2                	mov    %eax,%edx
  401ae0:	be 10 3b 40 00       	mov    $0x403b10,%esi
  401ae5:	bf 01 00 00 00       	mov    $0x1,%edi
  401aea:	b8 00 00 00 00       	mov    $0x0,%eax
  401aef:	e8 0c f3 ff ff       	callq  400e00 <__printf_chk@plt>
  401af4:	48 83 c4 08          	add    $0x8,%rsp
  401af8:	c3                   	retq   

0000000000401af9 <start_farm>:
  401af9:	b8 01 00 00 00       	mov    $0x1,%eax
  401afe:	c3                   	retq   

0000000000401aff <getval_290>:
  401aff:	b8 48 88 c7 c3       	mov    $0xc3c78848,%eax
  401b04:	c3                   	retq   

0000000000401b05 <addval_265>:
  401b05:	8d 87 48 89 c7 c3    	lea    -0x3c3876b8(%rdi),%eax
  401b0b:	c3                   	retq   

0000000000401b0c <addval_133>:
  401b0c:	8d 87 21 58 92 90    	lea    -0x6f6da7df(%rdi),%eax
  401b12:	c3                   	retq   

0000000000401b13 <addval_134>:
  401b13:	8d 87 aa 60 b2 58    	lea    0x58b260aa(%rdi),%eax
  401b19:	c3                   	retq   

0000000000401b1a <addval_448>:
  401b1a:	8d 87 0a 50 c3 91    	lea    -0x6e3caff6(%rdi),%eax
  401b20:	c3                   	retq   

0000000000401b21 <addval_148>:
  401b21:	8d 87 48 89 c7 c3    	lea    -0x3c3876b8(%rdi),%eax
  401b27:	c3                   	retq   

0000000000401b28 <getval_263>:
  401b28:	b8 9c 1c 62 58       	mov    $0x58621c9c,%eax
  401b2d:	c3                   	retq   

0000000000401b2e <getval_449>:
  401b2e:	b8 48 89 c7 94       	mov    $0x94c78948,%eax
  401b33:	c3                   	retq   

0000000000401b34 <mid_farm>:
  401b34:	b8 01 00 00 00       	mov    $0x1,%eax
  401b39:	c3                   	retq   

0000000000401b3a <add_xy>:
  401b3a:	48 8d 04 37          	lea    (%rdi,%rsi,1),%rax
  401b3e:	c3                   	retq   

0000000000401b3f <setval_387>:
  401b3f:	c7 07 5b 89 d1 c3    	movl   $0xc3d1895b,(%rdi)
  401b45:	c3                   	retq   

0000000000401b46 <getval_231>:
  401b46:	b8 48 89 e0 92       	mov    $0x92e08948,%eax
  401b4b:	c3                   	retq   

0000000000401b4c <getval_439>:
  401b4c:	b8 48 c9 e0 c3       	mov    $0xc3e0c948,%eax
  401b51:	c3                   	retq   

0000000000401b52 <setval_161>:
  401b52:	c7 07 a9 d1 84 d2    	movl   $0xd284d1a9,(%rdi)
  401b58:	c3                   	retq   

0000000000401b59 <getval_226>:
  401b59:	b8 89 ce 90 c3       	mov    $0xc390ce89,%eax
  401b5e:	c3                   	retq   

0000000000401b5f <getval_408>:
  401b5f:	b8 89 c2 c7 f7       	mov    $0xf7c7c289,%eax
  401b64:	c3                   	retq   

0000000000401b65 <getval_481>:
  401b65:	b8 48 89 e0 c2       	mov    $0xc2e08948,%eax
  401b6a:	c3                   	retq   

0000000000401b6b <setval_245>:
  401b6b:	c7 07 89 ce 28 d2    	movl   $0xd228ce89,(%rdi)
  401b71:	c3                   	retq   

0000000000401b72 <addval_321>:
  401b72:	8d 87 48 89 e0 90    	lea    -0x6f1f76b8(%rdi),%eax
  401b78:	c3                   	retq   

0000000000401b79 <setval_331>:
  401b79:	c7 07 89 ce 18 db    	movl   $0xdb18ce89,(%rdi)
  401b7f:	c3                   	retq   

0000000000401b80 <setval_250>:
  401b80:	c7 07 89 c2 90 90    	movl   $0x9090c289,(%rdi)
  401b86:	c3                   	retq   

0000000000401b87 <addval_483>:
  401b87:	8d 87 8b c2 90 c3    	lea    -0x3c6f3d75(%rdi),%eax
  401b8d:	c3                   	retq   

0000000000401b8e <addval_362>:
  401b8e:	8d 87 99 d1 84 c0    	lea    -0x3f7b2e67(%rdi),%eax
  401b94:	c3                   	retq   

0000000000401b95 <addval_489>:
  401b95:	8d 87 89 c2 18 d2    	lea    -0x2de73d77(%rdi),%eax
  401b9b:	c3                   	retq   

0000000000401b9c <addval_209>:
  401b9c:	8d 87 09 d1 20 c0    	lea    -0x3fdf2ef7(%rdi),%eax
  401ba2:	c3                   	retq   

0000000000401ba3 <addval_412>:
  401ba3:	8d 87 89 c2 91 90    	lea    -0x6f6e3d77(%rdi),%eax
  401ba9:	c3                   	retq   

0000000000401baa <getval_430>:
  401baa:	b8 48 8d e0 c3       	mov    $0xc3e08d48,%eax
  401baf:	c3                   	retq   

0000000000401bb0 <setval_160>:
  401bb0:	c7 07 89 ce 84 c9    	movl   $0xc984ce89,(%rdi)
  401bb6:	c3                   	retq   

0000000000401bb7 <getval_286>:
  401bb7:	b8 89 d1 94 c3       	mov    $0xc394d189,%eax
  401bbc:	c3                   	retq   

0000000000401bbd <addval_236>:
  401bbd:	8d 87 48 89 e0 c1    	lea    -0x3e1f76b8(%rdi),%eax
  401bc3:	c3                   	retq   

0000000000401bc4 <addval_244>:
  401bc4:	8d 87 a9 c2 38 db    	lea    -0x24c73d57(%rdi),%eax
  401bca:	c3                   	retq   

0000000000401bcb <setval_177>:
  401bcb:	c7 07 48 89 e0 c3    	movl   $0xc3e08948,(%rdi)
  401bd1:	c3                   	retq   

0000000000401bd2 <addval_150>:
  401bd2:	8d 87 89 ce 94 c3    	lea    -0x3c6b3177(%rdi),%eax
  401bd8:	c3                   	retq   

0000000000401bd9 <getval_253>:
  401bd9:	b8 09 ce 08 d2       	mov    $0xd208ce09,%eax
  401bde:	c3                   	retq   

0000000000401bdf <getval_484>:
  401bdf:	b8 48 89 e0 91       	mov    $0x91e08948,%eax
  401be4:	c3                   	retq   

0000000000401be5 <getval_262>:
  401be5:	b8 89 d1 20 db       	mov    $0xdb20d189,%eax
  401bea:	c3                   	retq   

0000000000401beb <addval_360>:
  401beb:	8d 87 89 d1 78 c9    	lea    -0x36872e77(%rdi),%eax
  401bf1:	c3                   	retq   

0000000000401bf2 <addval_415>:
  401bf2:	8d 87 89 d1 18 c9    	lea    -0x36e72e77(%rdi),%eax
  401bf8:	c3                   	retq   

0000000000401bf9 <getval_479>:
  401bf9:	b8 c9 c2 08 c9       	mov    $0xc908c2c9,%eax
  401bfe:	c3                   	retq   

0000000000401bff <addval_189>:
  401bff:	8d 87 89 ce 18 d2    	lea    -0x2de73177(%rdi),%eax
  401c05:	c3                   	retq   

0000000000401c06 <setval_279>:
  401c06:	c7 07 89 ce c4 db    	movl   $0xdbc4ce89,(%rdi)
  401c0c:	c3                   	retq   

0000000000401c0d <getval_227>:
  401c0d:	b8 89 c2 84 d2       	mov    $0xd284c289,%eax
  401c12:	c3                   	retq   

0000000000401c13 <end_farm>:
  401c13:	b8 01 00 00 00       	mov    $0x1,%eax
  401c18:	c3                   	retq   

0000000000401c19 <save_char>:
  401c19:	8b 05 05 4a 20 00    	mov    0x204a05(%rip),%eax        # 606624 <gets_cnt>
  401c1f:	3d ff 03 00 00       	cmp    $0x3ff,%eax
  401c24:	7f 49                	jg     401c6f <save_char+0x56>
  401c26:	8d 14 40             	lea    (%rax,%rax,2),%edx
  401c29:	89 f9                	mov    %edi,%ecx
  401c2b:	c0 e9 04             	shr    $0x4,%cl
  401c2e:	83 e1 0f             	and    $0xf,%ecx
  401c31:	0f b6 b1 30 3e 40 00 	movzbl 0x403e30(%rcx),%esi
  401c38:	48 63 ca             	movslq %edx,%rcx
  401c3b:	40 88 b1 20 5a 60 00 	mov    %sil,0x605a20(%rcx)
  401c42:	8d 4a 01             	lea    0x1(%rdx),%ecx
  401c45:	83 e7 0f             	and    $0xf,%edi
  401c48:	0f b6 b7 30 3e 40 00 	movzbl 0x403e30(%rdi),%esi
  401c4f:	48 63 c9             	movslq %ecx,%rcx
  401c52:	40 88 b1 20 5a 60 00 	mov    %sil,0x605a20(%rcx)
  401c59:	83 c2 02             	add    $0x2,%edx
  401c5c:	48 63 d2             	movslq %edx,%rdx
  401c5f:	c6 82 20 5a 60 00 20 	movb   $0x20,0x605a20(%rdx)
  401c66:	83 c0 01             	add    $0x1,%eax
  401c69:	89 05 b5 49 20 00    	mov    %eax,0x2049b5(%rip)        # 606624 <gets_cnt>
  401c6f:	f3 c3                	repz retq 

0000000000401c71 <save_term>:
  401c71:	8b 05 ad 49 20 00    	mov    0x2049ad(%rip),%eax        # 606624 <gets_cnt>
  401c77:	8d 04 40             	lea    (%rax,%rax,2),%eax
  401c7a:	48 98                	cltq   
  401c7c:	c6 80 20 5a 60 00 00 	movb   $0x0,0x605a20(%rax)
  401c83:	c3                   	retq   

0000000000401c84 <check_fail>:
  401c84:	48 83 ec 08          	sub    $0x8,%rsp
  401c88:	0f be 15 99 49 20 00 	movsbl 0x204999(%rip),%edx        # 606628 <target_prefix>
  401c8f:	41 b8 20 5a 60 00    	mov    $0x605a20,%r8d
  401c95:	8b 0d 5d 3d 20 00    	mov    0x203d5d(%rip),%ecx        # 6059f8 <check_level>
  401c9b:	be 33 3b 40 00       	mov    $0x403b33,%esi
  401ca0:	bf 01 00 00 00       	mov    $0x1,%edi
  401ca5:	b8 00 00 00 00       	mov    $0x0,%eax
  401caa:	e8 51 f1 ff ff       	callq  400e00 <__printf_chk@plt>
  401caf:	bf 01 00 00 00       	mov    $0x1,%edi
  401cb4:	e8 97 f1 ff ff       	callq  400e50 <exit@plt>

0000000000401cb9 <Gets>:
  401cb9:	41 54                	push   %r12
  401cbb:	55                   	push   %rbp
  401cbc:	53                   	push   %rbx
  401cbd:	49 89 fc             	mov    %rdi,%r12
  401cc0:	c7 05 5a 49 20 00 00 	movl   $0x0,0x20495a(%rip)        # 606624 <gets_cnt>
  401cc7:	00 00 00 
  401cca:	48 89 fb             	mov    %rdi,%rbx
  401ccd:	eb 11                	jmp    401ce0 <Gets+0x27>
  401ccf:	48 8d 6b 01          	lea    0x1(%rbx),%rbp
  401cd3:	88 03                	mov    %al,(%rbx)
  401cd5:	0f b6 f8             	movzbl %al,%edi
  401cd8:	e8 3c ff ff ff       	callq  401c19 <save_char>
  401cdd:	48 89 eb             	mov    %rbp,%rbx
  401ce0:	48 8b 3d 09 3d 20 00 	mov    0x203d09(%rip),%rdi        # 6059f0 <infile>
  401ce7:	e8 e4 f0 ff ff       	callq  400dd0 <_IO_getc@plt>
  401cec:	83 f8 ff             	cmp    $0xffffffff,%eax
  401cef:	74 05                	je     401cf6 <Gets+0x3d>
  401cf1:	83 f8 0a             	cmp    $0xa,%eax
  401cf4:	75 d9                	jne    401ccf <Gets+0x16>
  401cf6:	c6 03 00             	movb   $0x0,(%rbx)
  401cf9:	b8 00 00 00 00       	mov    $0x0,%eax
  401cfe:	e8 6e ff ff ff       	callq  401c71 <save_term>
  401d03:	4c 89 e0             	mov    %r12,%rax
  401d06:	5b                   	pop    %rbx
  401d07:	5d                   	pop    %rbp
  401d08:	41 5c                	pop    %r12
  401d0a:	c3                   	retq   

0000000000401d0b <notify_server>:
  401d0b:	53                   	push   %rbx
  401d0c:	48 81 ec 10 40 00 00 	sub    $0x4010,%rsp
  401d13:	64 48 8b 04 25 28 00 	mov    %fs:0x28,%rax
  401d1a:	00 00 
  401d1c:	48 89 84 24 08 40 00 	mov    %rax,0x4008(%rsp)
  401d23:	00 
  401d24:	31 c0                	xor    %eax,%eax
  401d26:	83 3d db 3c 20 00 00 	cmpl   $0x0,0x203cdb(%rip)        # 605a08 <is_checker>
  401d2d:	0f 85 aa 01 00 00    	jne    401edd <notify_server+0x1d2>
  401d33:	89 fb                	mov    %edi,%ebx
  401d35:	8b 05 e9 48 20 00    	mov    0x2048e9(%rip),%eax        # 606624 <gets_cnt>
  401d3b:	83 c0 64             	add    $0x64,%eax
  401d3e:	3d 00 20 00 00       	cmp    $0x2000,%eax
  401d43:	7e 1e                	jle    401d63 <notify_server+0x58>
  401d45:	be 68 3c 40 00       	mov    $0x403c68,%esi
  401d4a:	bf 01 00 00 00       	mov    $0x1,%edi
  401d4f:	b8 00 00 00 00       	mov    $0x0,%eax
  401d54:	e8 a7 f0 ff ff       	callq  400e00 <__printf_chk@plt>
  401d59:	bf 01 00 00 00       	mov    $0x1,%edi
  401d5e:	e8 ed f0 ff ff       	callq  400e50 <exit@plt>
  401d63:	0f be 05 be 48 20 00 	movsbl 0x2048be(%rip),%eax        # 606628 <target_prefix>
  401d6a:	83 3d 17 3c 20 00 00 	cmpl   $0x0,0x203c17(%rip)        # 605988 <notify>
  401d71:	74 08                	je     401d7b <notify_server+0x70>
  401d73:	8b 15 87 3c 20 00    	mov    0x203c87(%rip),%edx        # 605a00 <authkey>
  401d79:	eb 05                	jmp    401d80 <notify_server+0x75>
  401d7b:	ba ff ff ff ff       	mov    $0xffffffff,%edx
  401d80:	85 db                	test   %ebx,%ebx
  401d82:	74 08                	je     401d8c <notify_server+0x81>
  401d84:	41 b9 49 3b 40 00    	mov    $0x403b49,%r9d
  401d8a:	eb 06                	jmp    401d92 <notify_server+0x87>
  401d8c:	41 b9 4e 3b 40 00    	mov    $0x403b4e,%r9d
  401d92:	68 20 5a 60 00       	pushq  $0x605a20
  401d97:	56                   	push   %rsi
  401d98:	50                   	push   %rax
  401d99:	52                   	push   %rdx
  401d9a:	44 8b 05 c7 33 20 00 	mov    0x2033c7(%rip),%r8d        # 605168 <target_id>
  401da1:	b9 53 3b 40 00       	mov    $0x403b53,%ecx
  401da6:	ba 00 20 00 00       	mov    $0x2000,%edx
  401dab:	be 01 00 00 00       	mov    $0x1,%esi
  401db0:	48 8d 7c 24 20       	lea    0x20(%rsp),%rdi
  401db5:	b8 00 00 00 00       	mov    $0x0,%eax
  401dba:	e8 c1 f0 ff ff       	callq  400e80 <__sprintf_chk@plt>
  401dbf:	48 83 c4 20          	add    $0x20,%rsp
  401dc3:	83 3d be 3b 20 00 00 	cmpl   $0x0,0x203bbe(%rip)        # 605988 <notify>
  401dca:	0f 84 81 00 00 00    	je     401e51 <notify_server+0x146>
  401dd0:	85 db                	test   %ebx,%ebx
  401dd2:	74 6e                	je     401e42 <notify_server+0x137>
  401dd4:	4c 8d 8c 24 00 20 00 	lea    0x2000(%rsp),%r9
  401ddb:	00 
  401ddc:	41 b8 00 00 00 00    	mov    $0x0,%r8d
  401de2:	48 89 e1             	mov    %rsp,%rcx
  401de5:	48 8b 15 84 33 20 00 	mov    0x203384(%rip),%rdx        # 605170 <lab>
  401dec:	48 8b 35 85 33 20 00 	mov    0x203385(%rip),%rsi        # 605178 <course>
  401df3:	48 8b 3d 66 33 20 00 	mov    0x203366(%rip),%rdi        # 605160 <user_id>
  401dfa:	e8 ef 10 00 00       	callq  402eee <driver_post>
  401dff:	85 c0                	test   %eax,%eax
  401e01:	79 26                	jns    401e29 <notify_server+0x11e>
  401e03:	48 8d 94 24 00 20 00 	lea    0x2000(%rsp),%rdx
  401e0a:	00 
  401e0b:	be 6f 3b 40 00       	mov    $0x403b6f,%esi
  401e10:	bf 01 00 00 00       	mov    $0x1,%edi
  401e15:	b8 00 00 00 00       	mov    $0x0,%eax
  401e1a:	e8 e1 ef ff ff       	callq  400e00 <__printf_chk@plt>
  401e1f:	bf 01 00 00 00       	mov    $0x1,%edi
  401e24:	e8 27 f0 ff ff       	callq  400e50 <exit@plt>
  401e29:	bf 98 3c 40 00       	mov    $0x403c98,%edi
  401e2e:	e8 9d ee ff ff       	callq  400cd0 <puts@plt>
  401e33:	bf 7b 3b 40 00       	mov    $0x403b7b,%edi
  401e38:	e8 93 ee ff ff       	callq  400cd0 <puts@plt>
  401e3d:	e9 9b 00 00 00       	jmpq   401edd <notify_server+0x1d2>
  401e42:	bf 85 3b 40 00       	mov    $0x403b85,%edi
  401e47:	e8 84 ee ff ff       	callq  400cd0 <puts@plt>
  401e4c:	e9 8c 00 00 00       	jmpq   401edd <notify_server+0x1d2>
  401e51:	85 db                	test   %ebx,%ebx
  401e53:	74 07                	je     401e5c <notify_server+0x151>
  401e55:	ba 49 3b 40 00       	mov    $0x403b49,%edx
  401e5a:	eb 05                	jmp    401e61 <notify_server+0x156>
  401e5c:	ba 4e 3b 40 00       	mov    $0x403b4e,%edx
  401e61:	be d0 3c 40 00       	mov    $0x403cd0,%esi
  401e66:	bf 01 00 00 00       	mov    $0x1,%edi
  401e6b:	b8 00 00 00 00       	mov    $0x0,%eax
  401e70:	e8 8b ef ff ff       	callq  400e00 <__printf_chk@plt>
  401e75:	48 8b 15 e4 32 20 00 	mov    0x2032e4(%rip),%rdx        # 605160 <user_id>
  401e7c:	be 8c 3b 40 00       	mov    $0x403b8c,%esi
  401e81:	bf 01 00 00 00       	mov    $0x1,%edi
  401e86:	b8 00 00 00 00       	mov    $0x0,%eax
  401e8b:	e8 70 ef ff ff       	callq  400e00 <__printf_chk@plt>
  401e90:	48 8b 15 e1 32 20 00 	mov    0x2032e1(%rip),%rdx        # 605178 <course>
  401e97:	be 99 3b 40 00       	mov    $0x403b99,%esi
  401e9c:	bf 01 00 00 00       	mov    $0x1,%edi
  401ea1:	b8 00 00 00 00       	mov    $0x0,%eax
  401ea6:	e8 55 ef ff ff       	callq  400e00 <__printf_chk@plt>
  401eab:	48 8b 15 be 32 20 00 	mov    0x2032be(%rip),%rdx        # 605170 <lab>
  401eb2:	be a5 3b 40 00       	mov    $0x403ba5,%esi
  401eb7:	bf 01 00 00 00       	mov    $0x1,%edi
  401ebc:	b8 00 00 00 00       	mov    $0x0,%eax
  401ec1:	e8 3a ef ff ff       	callq  400e00 <__printf_chk@plt>
  401ec6:	48 89 e2             	mov    %rsp,%rdx
  401ec9:	be ae 3b 40 00       	mov    $0x403bae,%esi
  401ece:	bf 01 00 00 00       	mov    $0x1,%edi
  401ed3:	b8 00 00 00 00       	mov    $0x0,%eax
  401ed8:	e8 23 ef ff ff       	callq  400e00 <__printf_chk@plt>
  401edd:	48 8b 84 24 08 40 00 	mov    0x4008(%rsp),%rax
  401ee4:	00 
  401ee5:	64 48 33 04 25 28 00 	xor    %fs:0x28,%rax
  401eec:	00 00 
  401eee:	74 05                	je     401ef5 <notify_server+0x1ea>
  401ef0:	e8 fb ed ff ff       	callq  400cf0 <__stack_chk_fail@plt>
  401ef5:	48 81 c4 10 40 00 00 	add    $0x4010,%rsp
  401efc:	5b                   	pop    %rbx
  401efd:	c3                   	retq   

0000000000401efe <validate>:
  401efe:	53                   	push   %rbx
  401eff:	89 fb                	mov    %edi,%ebx
  401f01:	83 3d 00 3b 20 00 00 	cmpl   $0x0,0x203b00(%rip)        # 605a08 <is_checker>
  401f08:	74 6b                	je     401f75 <validate+0x77>
  401f0a:	39 3d ec 3a 20 00    	cmp    %edi,0x203aec(%rip)        # 6059fc <vlevel>
  401f10:	74 14                	je     401f26 <validate+0x28>
  401f12:	bf ba 3b 40 00       	mov    $0x403bba,%edi
  401f17:	e8 b4 ed ff ff       	callq  400cd0 <puts@plt>
  401f1c:	b8 00 00 00 00       	mov    $0x0,%eax
  401f21:	e8 5e fd ff ff       	callq  401c84 <check_fail>
  401f26:	8b 15 cc 3a 20 00    	mov    0x203acc(%rip),%edx        # 6059f8 <check_level>
  401f2c:	39 d7                	cmp    %edx,%edi
  401f2e:	74 20                	je     401f50 <validate+0x52>
  401f30:	89 f9                	mov    %edi,%ecx
  401f32:	be f8 3c 40 00       	mov    $0x403cf8,%esi
  401f37:	bf 01 00 00 00       	mov    $0x1,%edi
  401f3c:	b8 00 00 00 00       	mov    $0x0,%eax
  401f41:	e8 ba ee ff ff       	callq  400e00 <__printf_chk@plt>
  401f46:	b8 00 00 00 00       	mov    $0x0,%eax
  401f4b:	e8 34 fd ff ff       	callq  401c84 <check_fail>
  401f50:	0f be 15 d1 46 20 00 	movsbl 0x2046d1(%rip),%edx        # 606628 <target_prefix>
  401f57:	41 b8 20 5a 60 00    	mov    $0x605a20,%r8d
  401f5d:	89 f9                	mov    %edi,%ecx
  401f5f:	be d8 3b 40 00       	mov    $0x403bd8,%esi
  401f64:	bf 01 00 00 00       	mov    $0x1,%edi
  401f69:	b8 00 00 00 00       	mov    $0x0,%eax
  401f6e:	e8 8d ee ff ff       	callq  400e00 <__printf_chk@plt>
  401f73:	eb 49                	jmp    401fbe <validate+0xc0>
  401f75:	3b 3d 81 3a 20 00    	cmp    0x203a81(%rip),%edi        # 6059fc <vlevel>
  401f7b:	74 18                	je     401f95 <validate+0x97>
  401f7d:	bf ba 3b 40 00       	mov    $0x403bba,%edi
  401f82:	e8 49 ed ff ff       	callq  400cd0 <puts@plt>
  401f87:	89 de                	mov    %ebx,%esi
  401f89:	bf 00 00 00 00       	mov    $0x0,%edi
  401f8e:	e8 78 fd ff ff       	callq  401d0b <notify_server>
  401f93:	eb 29                	jmp    401fbe <validate+0xc0>
  401f95:	0f be 0d 8c 46 20 00 	movsbl 0x20468c(%rip),%ecx        # 606628 <target_prefix>
  401f9c:	89 fa                	mov    %edi,%edx
  401f9e:	be 20 3d 40 00       	mov    $0x403d20,%esi
  401fa3:	bf 01 00 00 00       	mov    $0x1,%edi
  401fa8:	b8 00 00 00 00       	mov    $0x0,%eax
  401fad:	e8 4e ee ff ff       	callq  400e00 <__printf_chk@plt>
  401fb2:	89 de                	mov    %ebx,%esi
  401fb4:	bf 01 00 00 00       	mov    $0x1,%edi
  401fb9:	e8 4d fd ff ff       	callq  401d0b <notify_server>
  401fbe:	5b                   	pop    %rbx
  401fbf:	c3                   	retq   

0000000000401fc0 <fail>:
  401fc0:	48 83 ec 08          	sub    $0x8,%rsp
  401fc4:	83 3d 3d 3a 20 00 00 	cmpl   $0x0,0x203a3d(%rip)        # 605a08 <is_checker>
  401fcb:	74 0a                	je     401fd7 <fail+0x17>
  401fcd:	b8 00 00 00 00       	mov    $0x0,%eax
  401fd2:	e8 ad fc ff ff       	callq  401c84 <check_fail>
  401fd7:	89 fe                	mov    %edi,%esi
  401fd9:	bf 00 00 00 00       	mov    $0x0,%edi
  401fde:	e8 28 fd ff ff       	callq  401d0b <notify_server>
  401fe3:	48 83 c4 08          	add    $0x8,%rsp
  401fe7:	c3                   	retq   

0000000000401fe8 <bushandler>:
  401fe8:	48 83 ec 08          	sub    $0x8,%rsp
  401fec:	83 3d 15 3a 20 00 00 	cmpl   $0x0,0x203a15(%rip)        # 605a08 <is_checker>
  401ff3:	74 14                	je     402009 <bushandler+0x21>
  401ff5:	bf ed 3b 40 00       	mov    $0x403bed,%edi
  401ffa:	e8 d1 ec ff ff       	callq  400cd0 <puts@plt>
  401fff:	b8 00 00 00 00       	mov    $0x0,%eax
  402004:	e8 7b fc ff ff       	callq  401c84 <check_fail>
  402009:	bf 58 3d 40 00       	mov    $0x403d58,%edi
  40200e:	e8 bd ec ff ff       	callq  400cd0 <puts@plt>
  402013:	bf f7 3b 40 00       	mov    $0x403bf7,%edi
  402018:	e8 b3 ec ff ff       	callq  400cd0 <puts@plt>
  40201d:	be 00 00 00 00       	mov    $0x0,%esi
  402022:	bf 00 00 00 00       	mov    $0x0,%edi
  402027:	e8 df fc ff ff       	callq  401d0b <notify_server>
  40202c:	bf 01 00 00 00       	mov    $0x1,%edi
  402031:	e8 1a ee ff ff       	callq  400e50 <exit@plt>

0000000000402036 <seghandler>:
  402036:	48 83 ec 08          	sub    $0x8,%rsp
  40203a:	83 3d c7 39 20 00 00 	cmpl   $0x0,0x2039c7(%rip)        # 605a08 <is_checker>
  402041:	74 14                	je     402057 <seghandler+0x21>
  402043:	bf 0d 3c 40 00       	mov    $0x403c0d,%edi
  402048:	e8 83 ec ff ff       	callq  400cd0 <puts@plt>
  40204d:	b8 00 00 00 00       	mov    $0x0,%eax
  402052:	e8 2d fc ff ff       	callq  401c84 <check_fail>
  402057:	bf 78 3d 40 00       	mov    $0x403d78,%edi
  40205c:	e8 6f ec ff ff       	callq  400cd0 <puts@plt>
  402061:	bf f7 3b 40 00       	mov    $0x403bf7,%edi
  402066:	e8 65 ec ff ff       	callq  400cd0 <puts@plt>
  40206b:	be 00 00 00 00       	mov    $0x0,%esi
  402070:	bf 00 00 00 00       	mov    $0x0,%edi
  402075:	e8 91 fc ff ff       	callq  401d0b <notify_server>
  40207a:	bf 01 00 00 00       	mov    $0x1,%edi
  40207f:	e8 cc ed ff ff       	callq  400e50 <exit@plt>

0000000000402084 <illegalhandler>:
  402084:	48 83 ec 08          	sub    $0x8,%rsp
  402088:	83 3d 79 39 20 00 00 	cmpl   $0x0,0x203979(%rip)        # 605a08 <is_checker>
  40208f:	74 14                	je     4020a5 <illegalhandler+0x21>
  402091:	bf 20 3c 40 00       	mov    $0x403c20,%edi
  402096:	e8 35 ec ff ff       	callq  400cd0 <puts@plt>
  40209b:	b8 00 00 00 00       	mov    $0x0,%eax
  4020a0:	e8 df fb ff ff       	callq  401c84 <check_fail>
  4020a5:	bf a0 3d 40 00       	mov    $0x403da0,%edi
  4020aa:	e8 21 ec ff ff       	callq  400cd0 <puts@plt>
  4020af:	bf f7 3b 40 00       	mov    $0x403bf7,%edi
  4020b4:	e8 17 ec ff ff       	callq  400cd0 <puts@plt>
  4020b9:	be 00 00 00 00       	mov    $0x0,%esi
  4020be:	bf 00 00 00 00       	mov    $0x0,%edi
  4020c3:	e8 43 fc ff ff       	callq  401d0b <notify_server>
  4020c8:	bf 01 00 00 00       	mov    $0x1,%edi
  4020cd:	e8 7e ed ff ff       	callq  400e50 <exit@plt>

00000000004020d2 <sigalrmhandler>:
  4020d2:	48 83 ec 08          	sub    $0x8,%rsp
  4020d6:	83 3d 2b 39 20 00 00 	cmpl   $0x0,0x20392b(%rip)        # 605a08 <is_checker>
  4020dd:	74 14                	je     4020f3 <sigalrmhandler+0x21>
  4020df:	bf 34 3c 40 00       	mov    $0x403c34,%edi
  4020e4:	e8 e7 eb ff ff       	callq  400cd0 <puts@plt>
  4020e9:	b8 00 00 00 00       	mov    $0x0,%eax
  4020ee:	e8 91 fb ff ff       	callq  401c84 <check_fail>
  4020f3:	ba 05 00 00 00       	mov    $0x5,%edx
  4020f8:	be d0 3d 40 00       	mov    $0x403dd0,%esi
  4020fd:	bf 01 00 00 00       	mov    $0x1,%edi
  402102:	b8 00 00 00 00       	mov    $0x0,%eax
  402107:	e8 f4 ec ff ff       	callq  400e00 <__printf_chk@plt>
  40210c:	be 00 00 00 00       	mov    $0x0,%esi
  402111:	bf 00 00 00 00       	mov    $0x0,%edi
  402116:	e8 f0 fb ff ff       	callq  401d0b <notify_server>
  40211b:	bf 01 00 00 00       	mov    $0x1,%edi
  402120:	e8 2b ed ff ff       	callq  400e50 <exit@plt>

0000000000402125 <launch>:
  402125:	55                   	push   %rbp
  402126:	48 89 e5             	mov    %rsp,%rbp
  402129:	48 83 ec 10          	sub    $0x10,%rsp
  40212d:	48 89 fa             	mov    %rdi,%rdx
  402130:	64 48 8b 04 25 28 00 	mov    %fs:0x28,%rax
  402137:	00 00 
  402139:	48 89 45 f8          	mov    %rax,-0x8(%rbp)
  40213d:	31 c0                	xor    %eax,%eax
  40213f:	48 8d 47 1e          	lea    0x1e(%rdi),%rax
  402143:	48 83 e0 f0          	and    $0xfffffffffffffff0,%rax
  402147:	48 29 c4             	sub    %rax,%rsp
  40214a:	48 8d 7c 24 0f       	lea    0xf(%rsp),%rdi
  40214f:	48 83 e7 f0          	and    $0xfffffffffffffff0,%rdi
  402153:	be f4 00 00 00       	mov    $0xf4,%esi
  402158:	e8 b3 eb ff ff       	callq  400d10 <memset@plt>
  40215d:	48 8b 05 3c 38 20 00 	mov    0x20383c(%rip),%rax        # 6059a0 <stdin@@GLIBC_2.2.5>
  402164:	48 39 05 85 38 20 00 	cmp    %rax,0x203885(%rip)        # 6059f0 <infile>
  40216b:	75 14                	jne    402181 <launch+0x5c>
  40216d:	be 3c 3c 40 00       	mov    $0x403c3c,%esi
  402172:	bf 01 00 00 00       	mov    $0x1,%edi
  402177:	b8 00 00 00 00       	mov    $0x0,%eax
  40217c:	e8 7f ec ff ff       	callq  400e00 <__printf_chk@plt>
  402181:	c7 05 71 38 20 00 00 	movl   $0x0,0x203871(%rip)        # 6059fc <vlevel>
  402188:	00 00 00 
  40218b:	b8 00 00 00 00       	mov    $0x0,%eax
  402190:	e8 3b f9 ff ff       	callq  401ad0 <test>
  402195:	83 3d 6c 38 20 00 00 	cmpl   $0x0,0x20386c(%rip)        # 605a08 <is_checker>
  40219c:	74 14                	je     4021b2 <launch+0x8d>
  40219e:	bf 49 3c 40 00       	mov    $0x403c49,%edi
  4021a3:	e8 28 eb ff ff       	callq  400cd0 <puts@plt>
  4021a8:	b8 00 00 00 00       	mov    $0x0,%eax
  4021ad:	e8 d2 fa ff ff       	callq  401c84 <check_fail>
  4021b2:	bf 54 3c 40 00       	mov    $0x403c54,%edi
  4021b7:	e8 14 eb ff ff       	callq  400cd0 <puts@plt>
  4021bc:	48 8b 45 f8          	mov    -0x8(%rbp),%rax
  4021c0:	64 48 33 04 25 28 00 	xor    %fs:0x28,%rax
  4021c7:	00 00 
  4021c9:	74 05                	je     4021d0 <launch+0xab>
  4021cb:	e8 20 eb ff ff       	callq  400cf0 <__stack_chk_fail@plt>
  4021d0:	c9                   	leaveq 
  4021d1:	c3                   	retq   

00000000004021d2 <stable_launch>:
  4021d2:	53                   	push   %rbx
  4021d3:	48 89 3d 0e 38 20 00 	mov    %rdi,0x20380e(%rip)        # 6059e8 <global_offset>
  4021da:	41 b9 00 00 00 00    	mov    $0x0,%r9d
  4021e0:	41 b8 00 00 00 00    	mov    $0x0,%r8d
  4021e6:	b9 32 01 00 00       	mov    $0x132,%ecx
  4021eb:	ba 07 00 00 00       	mov    $0x7,%edx
  4021f0:	be 00 00 10 00       	mov    $0x100000,%esi
  4021f5:	bf 00 60 58 55       	mov    $0x55586000,%edi
  4021fa:	e8 01 eb ff ff       	callq  400d00 <mmap@plt>
  4021ff:	48 89 c3             	mov    %rax,%rbx
  402202:	48 3d 00 60 58 55    	cmp    $0x55586000,%rax
  402208:	74 37                	je     402241 <stable_launch+0x6f>
  40220a:	be 00 00 10 00       	mov    $0x100000,%esi
  40220f:	48 89 c7             	mov    %rax,%rdi
  402212:	e8 d9 eb ff ff       	callq  400df0 <munmap@plt>
  402217:	b9 00 60 58 55       	mov    $0x55586000,%ecx
  40221c:	ba 08 3e 40 00       	mov    $0x403e08,%edx
  402221:	be 01 00 00 00       	mov    $0x1,%esi
  402226:	48 8b 3d 93 37 20 00 	mov    0x203793(%rip),%rdi        # 6059c0 <stderr@@GLIBC_2.2.5>
  40222d:	b8 00 00 00 00       	mov    $0x0,%eax
  402232:	e8 39 ec ff ff       	callq  400e70 <__fprintf_chk@plt>
  402237:	bf 01 00 00 00       	mov    $0x1,%edi
  40223c:	e8 0f ec ff ff       	callq  400e50 <exit@plt>
  402241:	48 8d 90 f8 ff 0f 00 	lea    0xffff8(%rax),%rdx
  402248:	48 89 15 e1 43 20 00 	mov    %rdx,0x2043e1(%rip)        # 606630 <stack_top>
  40224f:	48 89 e0             	mov    %rsp,%rax
  402252:	48 89 d4             	mov    %rdx,%rsp
  402255:	48 89 c2             	mov    %rax,%rdx
  402258:	48 89 15 81 37 20 00 	mov    %rdx,0x203781(%rip)        # 6059e0 <global_save_stack>
  40225f:	48 8b 3d 82 37 20 00 	mov    0x203782(%rip),%rdi        # 6059e8 <global_offset>
  402266:	e8 ba fe ff ff       	callq  402125 <launch>
  40226b:	48 8b 05 6e 37 20 00 	mov    0x20376e(%rip),%rax        # 6059e0 <global_save_stack>
  402272:	48 89 c4             	mov    %rax,%rsp
  402275:	be 00 00 10 00       	mov    $0x100000,%esi
  40227a:	48 89 df             	mov    %rbx,%rdi
  40227d:	e8 6e eb ff ff       	callq  400df0 <munmap@plt>
  402282:	5b                   	pop    %rbx
  402283:	c3                   	retq   

0000000000402284 <rio_readinitb>:
  402284:	89 37                	mov    %esi,(%rdi)
  402286:	c7 47 04 00 00 00 00 	movl   $0x0,0x4(%rdi)
  40228d:	48 8d 47 10          	lea    0x10(%rdi),%rax
  402291:	48 89 47 08          	mov    %rax,0x8(%rdi)
  402295:	c3                   	retq   

0000000000402296 <sigalrm_handler>:
  402296:	48 83 ec 08          	sub    $0x8,%rsp
  40229a:	b9 00 00 00 00       	mov    $0x0,%ecx
  40229f:	ba 40 3e 40 00       	mov    $0x403e40,%edx
  4022a4:	be 01 00 00 00       	mov    $0x1,%esi
  4022a9:	48 8b 3d 10 37 20 00 	mov    0x203710(%rip),%rdi        # 6059c0 <stderr@@GLIBC_2.2.5>
  4022b0:	b8 00 00 00 00       	mov    $0x0,%eax
  4022b5:	e8 b6 eb ff ff       	callq  400e70 <__fprintf_chk@plt>
  4022ba:	bf 01 00 00 00       	mov    $0x1,%edi
  4022bf:	e8 8c eb ff ff       	callq  400e50 <exit@plt>

00000000004022c4 <rio_writen>:
  4022c4:	41 55                	push   %r13
  4022c6:	41 54                	push   %r12
  4022c8:	55                   	push   %rbp
  4022c9:	53                   	push   %rbx
  4022ca:	48 83 ec 08          	sub    $0x8,%rsp
  4022ce:	41 89 fc             	mov    %edi,%r12d
  4022d1:	48 89 f5             	mov    %rsi,%rbp
  4022d4:	49 89 d5             	mov    %rdx,%r13
  4022d7:	48 89 d3             	mov    %rdx,%rbx
  4022da:	eb 28                	jmp    402304 <rio_writen+0x40>
  4022dc:	48 89 da             	mov    %rbx,%rdx
  4022df:	48 89 ee             	mov    %rbp,%rsi
  4022e2:	44 89 e7             	mov    %r12d,%edi
  4022e5:	e8 f6 e9 ff ff       	callq  400ce0 <write@plt>
  4022ea:	48 85 c0             	test   %rax,%rax
  4022ed:	7f 0f                	jg     4022fe <rio_writen+0x3a>
  4022ef:	e8 9c e9 ff ff       	callq  400c90 <__errno_location@plt>
  4022f4:	83 38 04             	cmpl   $0x4,(%rax)
  4022f7:	75 15                	jne    40230e <rio_writen+0x4a>
  4022f9:	b8 00 00 00 00       	mov    $0x0,%eax
  4022fe:	48 29 c3             	sub    %rax,%rbx
  402301:	48 01 c5             	add    %rax,%rbp
  402304:	48 85 db             	test   %rbx,%rbx
  402307:	75 d3                	jne    4022dc <rio_writen+0x18>
  402309:	4c 89 e8             	mov    %r13,%rax
  40230c:	eb 07                	jmp    402315 <rio_writen+0x51>
  40230e:	48 c7 c0 ff ff ff ff 	mov    $0xffffffffffffffff,%rax
  402315:	48 83 c4 08          	add    $0x8,%rsp
  402319:	5b                   	pop    %rbx
  40231a:	5d                   	pop    %rbp
  40231b:	41 5c                	pop    %r12
  40231d:	41 5d                	pop    %r13
  40231f:	c3                   	retq   

0000000000402320 <rio_read>:
  402320:	41 55                	push   %r13
  402322:	41 54                	push   %r12
  402324:	55                   	push   %rbp
  402325:	53                   	push   %rbx
  402326:	48 83 ec 08          	sub    $0x8,%rsp
  40232a:	48 89 fb             	mov    %rdi,%rbx
  40232d:	49 89 f5             	mov    %rsi,%r13
  402330:	49 89 d4             	mov    %rdx,%r12
  402333:	eb 2e                	jmp    402363 <rio_read+0x43>
  402335:	48 8d 6b 10          	lea    0x10(%rbx),%rbp
  402339:	8b 3b                	mov    (%rbx),%edi
  40233b:	ba 00 20 00 00       	mov    $0x2000,%edx
  402340:	48 89 ee             	mov    %rbp,%rsi
  402343:	e8 f8 e9 ff ff       	callq  400d40 <read@plt>
  402348:	89 43 04             	mov    %eax,0x4(%rbx)
  40234b:	85 c0                	test   %eax,%eax
  40234d:	79 0c                	jns    40235b <rio_read+0x3b>
  40234f:	e8 3c e9 ff ff       	callq  400c90 <__errno_location@plt>
  402354:	83 38 04             	cmpl   $0x4,(%rax)
  402357:	74 0a                	je     402363 <rio_read+0x43>
  402359:	eb 37                	jmp    402392 <rio_read+0x72>
  40235b:	85 c0                	test   %eax,%eax
  40235d:	74 3c                	je     40239b <rio_read+0x7b>
  40235f:	48 89 6b 08          	mov    %rbp,0x8(%rbx)
  402363:	8b 6b 04             	mov    0x4(%rbx),%ebp
  402366:	85 ed                	test   %ebp,%ebp
  402368:	7e cb                	jle    402335 <rio_read+0x15>
  40236a:	89 e8                	mov    %ebp,%eax
  40236c:	49 39 c4             	cmp    %rax,%r12
  40236f:	77 03                	ja     402374 <rio_read+0x54>
  402371:	44 89 e5             	mov    %r12d,%ebp
  402374:	4c 63 e5             	movslq %ebp,%r12
  402377:	48 8b 73 08          	mov    0x8(%rbx),%rsi
  40237b:	4c 89 e2             	mov    %r12,%rdx
  40237e:	4c 89 ef             	mov    %r13,%rdi
  402381:	e8 1a ea ff ff       	callq  400da0 <memcpy@plt>
  402386:	4c 01 63 08          	add    %r12,0x8(%rbx)
  40238a:	29 6b 04             	sub    %ebp,0x4(%rbx)
  40238d:	4c 89 e0             	mov    %r12,%rax
  402390:	eb 0e                	jmp    4023a0 <rio_read+0x80>
  402392:	48 c7 c0 ff ff ff ff 	mov    $0xffffffffffffffff,%rax
  402399:	eb 05                	jmp    4023a0 <rio_read+0x80>
  40239b:	b8 00 00 00 00       	mov    $0x0,%eax
  4023a0:	48 83 c4 08          	add    $0x8,%rsp
  4023a4:	5b                   	pop    %rbx
  4023a5:	5d                   	pop    %rbp
  4023a6:	41 5c                	pop    %r12
  4023a8:	41 5d                	pop    %r13
  4023aa:	c3                   	retq   

00000000004023ab <rio_readlineb>:
  4023ab:	41 55                	push   %r13
  4023ad:	41 54                	push   %r12
  4023af:	55                   	push   %rbp
  4023b0:	53                   	push   %rbx
  4023b1:	48 83 ec 18          	sub    $0x18,%rsp
  4023b5:	49 89 fd             	mov    %rdi,%r13
  4023b8:	48 89 f5             	mov    %rsi,%rbp
  4023bb:	49 89 d4             	mov    %rdx,%r12
  4023be:	64 48 8b 04 25 28 00 	mov    %fs:0x28,%rax
  4023c5:	00 00 
  4023c7:	48 89 44 24 08       	mov    %rax,0x8(%rsp)
  4023cc:	31 c0                	xor    %eax,%eax
  4023ce:	bb 01 00 00 00       	mov    $0x1,%ebx
  4023d3:	eb 3f                	jmp    402414 <rio_readlineb+0x69>
  4023d5:	ba 01 00 00 00       	mov    $0x1,%edx
  4023da:	48 8d 74 24 07       	lea    0x7(%rsp),%rsi
  4023df:	4c 89 ef             	mov    %r13,%rdi
  4023e2:	e8 39 ff ff ff       	callq  402320 <rio_read>
  4023e7:	83 f8 01             	cmp    $0x1,%eax
  4023ea:	75 15                	jne    402401 <rio_readlineb+0x56>
  4023ec:	48 8d 45 01          	lea    0x1(%rbp),%rax
  4023f0:	0f b6 54 24 07       	movzbl 0x7(%rsp),%edx
  4023f5:	88 55 00             	mov    %dl,0x0(%rbp)
  4023f8:	80 7c 24 07 0a       	cmpb   $0xa,0x7(%rsp)
  4023fd:	75 0e                	jne    40240d <rio_readlineb+0x62>
  4023ff:	eb 1a                	jmp    40241b <rio_readlineb+0x70>
  402401:	85 c0                	test   %eax,%eax
  402403:	75 22                	jne    402427 <rio_readlineb+0x7c>
  402405:	48 83 fb 01          	cmp    $0x1,%rbx
  402409:	75 13                	jne    40241e <rio_readlineb+0x73>
  40240b:	eb 23                	jmp    402430 <rio_readlineb+0x85>
  40240d:	48 83 c3 01          	add    $0x1,%rbx
  402411:	48 89 c5             	mov    %rax,%rbp
  402414:	4c 39 e3             	cmp    %r12,%rbx
  402417:	72 bc                	jb     4023d5 <rio_readlineb+0x2a>
  402419:	eb 03                	jmp    40241e <rio_readlineb+0x73>
  40241b:	48 89 c5             	mov    %rax,%rbp
  40241e:	c6 45 00 00          	movb   $0x0,0x0(%rbp)
  402422:	48 89 d8             	mov    %rbx,%rax
  402425:	eb 0e                	jmp    402435 <rio_readlineb+0x8a>
  402427:	48 c7 c0 ff ff ff ff 	mov    $0xffffffffffffffff,%rax
  40242e:	eb 05                	jmp    402435 <rio_readlineb+0x8a>
  402430:	b8 00 00 00 00       	mov    $0x0,%eax
  402435:	48 8b 4c 24 08       	mov    0x8(%rsp),%rcx
  40243a:	64 48 33 0c 25 28 00 	xor    %fs:0x28,%rcx
  402441:	00 00 
  402443:	74 05                	je     40244a <rio_readlineb+0x9f>
  402445:	e8 a6 e8 ff ff       	callq  400cf0 <__stack_chk_fail@plt>
  40244a:	48 83 c4 18          	add    $0x18,%rsp
  40244e:	5b                   	pop    %rbx
  40244f:	5d                   	pop    %rbp
  402450:	41 5c                	pop    %r12
  402452:	41 5d                	pop    %r13
  402454:	c3                   	retq   

0000000000402455 <urlencode>:
  402455:	41 54                	push   %r12
  402457:	55                   	push   %rbp
  402458:	53                   	push   %rbx
  402459:	48 83 ec 10          	sub    $0x10,%rsp
  40245d:	48 89 fb             	mov    %rdi,%rbx
  402460:	48 89 f5             	mov    %rsi,%rbp
  402463:	64 48 8b 04 25 28 00 	mov    %fs:0x28,%rax
  40246a:	00 00 
  40246c:	48 89 44 24 08       	mov    %rax,0x8(%rsp)
  402471:	31 c0                	xor    %eax,%eax
  402473:	48 c7 c1 ff ff ff ff 	mov    $0xffffffffffffffff,%rcx
  40247a:	f2 ae                	repnz scas %es:(%rdi),%al
  40247c:	48 f7 d1             	not    %rcx
  40247f:	8d 41 ff             	lea    -0x1(%rcx),%eax
  402482:	e9 aa 00 00 00       	jmpq   402531 <urlencode+0xdc>
  402487:	44 0f b6 03          	movzbl (%rbx),%r8d
  40248b:	41 80 f8 2a          	cmp    $0x2a,%r8b
  40248f:	0f 94 c2             	sete   %dl
  402492:	41 80 f8 2d          	cmp    $0x2d,%r8b
  402496:	0f 94 c0             	sete   %al
  402499:	08 c2                	or     %al,%dl
  40249b:	75 24                	jne    4024c1 <urlencode+0x6c>
  40249d:	41 80 f8 2e          	cmp    $0x2e,%r8b
  4024a1:	74 1e                	je     4024c1 <urlencode+0x6c>
  4024a3:	41 80 f8 5f          	cmp    $0x5f,%r8b
  4024a7:	74 18                	je     4024c1 <urlencode+0x6c>
  4024a9:	41 8d 40 d0          	lea    -0x30(%r8),%eax
  4024ad:	3c 09                	cmp    $0x9,%al
  4024af:	76 10                	jbe    4024c1 <urlencode+0x6c>
  4024b1:	41 8d 40 bf          	lea    -0x41(%r8),%eax
  4024b5:	3c 19                	cmp    $0x19,%al
  4024b7:	76 08                	jbe    4024c1 <urlencode+0x6c>
  4024b9:	41 8d 40 9f          	lea    -0x61(%r8),%eax
  4024bd:	3c 19                	cmp    $0x19,%al
  4024bf:	77 0a                	ja     4024cb <urlencode+0x76>
  4024c1:	44 88 45 00          	mov    %r8b,0x0(%rbp)
  4024c5:	48 8d 6d 01          	lea    0x1(%rbp),%rbp
  4024c9:	eb 5f                	jmp    40252a <urlencode+0xd5>
  4024cb:	41 80 f8 20          	cmp    $0x20,%r8b
  4024cf:	75 0a                	jne    4024db <urlencode+0x86>
  4024d1:	c6 45 00 2b          	movb   $0x2b,0x0(%rbp)
  4024d5:	48 8d 6d 01          	lea    0x1(%rbp),%rbp
  4024d9:	eb 4f                	jmp    40252a <urlencode+0xd5>
  4024db:	41 8d 40 e0          	lea    -0x20(%r8),%eax
  4024df:	3c 5f                	cmp    $0x5f,%al
  4024e1:	0f 96 c2             	setbe  %dl
  4024e4:	41 80 f8 09          	cmp    $0x9,%r8b
  4024e8:	0f 94 c0             	sete   %al
  4024eb:	08 c2                	or     %al,%dl
  4024ed:	74 50                	je     40253f <urlencode+0xea>
  4024ef:	45 0f b6 c0          	movzbl %r8b,%r8d
  4024f3:	b9 d8 3e 40 00       	mov    $0x403ed8,%ecx
  4024f8:	ba 08 00 00 00       	mov    $0x8,%edx
  4024fd:	be 01 00 00 00       	mov    $0x1,%esi
  402502:	48 89 e7             	mov    %rsp,%rdi
  402505:	b8 00 00 00 00       	mov    $0x0,%eax
  40250a:	e8 71 e9 ff ff       	callq  400e80 <__sprintf_chk@plt>
  40250f:	0f b6 04 24          	movzbl (%rsp),%eax
  402513:	88 45 00             	mov    %al,0x0(%rbp)
  402516:	0f b6 44 24 01       	movzbl 0x1(%rsp),%eax
  40251b:	88 45 01             	mov    %al,0x1(%rbp)
  40251e:	0f b6 44 24 02       	movzbl 0x2(%rsp),%eax
  402523:	88 45 02             	mov    %al,0x2(%rbp)
  402526:	48 8d 6d 03          	lea    0x3(%rbp),%rbp
  40252a:	48 83 c3 01          	add    $0x1,%rbx
  40252e:	44 89 e0             	mov    %r12d,%eax
  402531:	44 8d 60 ff          	lea    -0x1(%rax),%r12d
  402535:	85 c0                	test   %eax,%eax
  402537:	0f 85 4a ff ff ff    	jne    402487 <urlencode+0x32>
  40253d:	eb 05                	jmp    402544 <urlencode+0xef>
  40253f:	b8 ff ff ff ff       	mov    $0xffffffff,%eax
  402544:	48 8b 74 24 08       	mov    0x8(%rsp),%rsi
  402549:	64 48 33 34 25 28 00 	xor    %fs:0x28,%rsi
  402550:	00 00 
  402552:	74 05                	je     402559 <urlencode+0x104>
  402554:	e8 97 e7 ff ff       	callq  400cf0 <__stack_chk_fail@plt>
  402559:	48 83 c4 10          	add    $0x10,%rsp
  40255d:	5b                   	pop    %rbx
  40255e:	5d                   	pop    %rbp
  40255f:	41 5c                	pop    %r12
  402561:	c3                   	retq   

0000000000402562 <submitr>:
  402562:	41 57                	push   %r15
  402564:	41 56                	push   %r14
  402566:	41 55                	push   %r13
  402568:	41 54                	push   %r12
  40256a:	55                   	push   %rbp
  40256b:	53                   	push   %rbx
  40256c:	48 81 ec 58 a0 00 00 	sub    $0xa058,%rsp
  402573:	49 89 fc             	mov    %rdi,%r12
  402576:	89 74 24 04          	mov    %esi,0x4(%rsp)
  40257a:	49 89 d7             	mov    %rdx,%r15
  40257d:	49 89 ce             	mov    %rcx,%r14
  402580:	4c 89 44 24 08       	mov    %r8,0x8(%rsp)
  402585:	4d 89 cd             	mov    %r9,%r13
  402588:	48 8b 9c 24 90 a0 00 	mov    0xa090(%rsp),%rbx
  40258f:	00 
  402590:	64 48 8b 04 25 28 00 	mov    %fs:0x28,%rax
  402597:	00 00 
  402599:	48 89 84 24 48 a0 00 	mov    %rax,0xa048(%rsp)
  4025a0:	00 
  4025a1:	31 c0                	xor    %eax,%eax
  4025a3:	c7 44 24 1c 00 00 00 	movl   $0x0,0x1c(%rsp)
  4025aa:	00 
  4025ab:	ba 00 00 00 00       	mov    $0x0,%edx
  4025b0:	be 01 00 00 00       	mov    $0x1,%esi
  4025b5:	bf 02 00 00 00       	mov    $0x2,%edi
  4025ba:	e8 d1 e8 ff ff       	callq  400e90 <socket@plt>
  4025bf:	85 c0                	test   %eax,%eax
  4025c1:	79 4e                	jns    402611 <submitr+0xaf>
  4025c3:	48 b8 45 72 72 6f 72 	movabs $0x43203a726f727245,%rax
  4025ca:	3a 20 43 
  4025cd:	48 89 03             	mov    %rax,(%rbx)
  4025d0:	48 b8 6c 69 65 6e 74 	movabs $0x6e7520746e65696c,%rax
  4025d7:	20 75 6e 
  4025da:	48 89 43 08          	mov    %rax,0x8(%rbx)
  4025de:	48 b8 61 62 6c 65 20 	movabs $0x206f7420656c6261,%rax
  4025e5:	74 6f 20 
  4025e8:	48 89 43 10          	mov    %rax,0x10(%rbx)
  4025ec:	48 b8 63 72 65 61 74 	movabs $0x7320657461657263,%rax
  4025f3:	65 20 73 
  4025f6:	48 89 43 18          	mov    %rax,0x18(%rbx)
  4025fa:	c7 43 20 6f 63 6b 65 	movl   $0x656b636f,0x20(%rbx)
  402601:	66 c7 43 24 74 00    	movw   $0x74,0x24(%rbx)
  402607:	b8 ff ff ff ff       	mov    $0xffffffff,%eax
  40260c:	e9 97 06 00 00       	jmpq   402ca8 <submitr+0x746>
  402611:	89 c5                	mov    %eax,%ebp
  402613:	4c 89 e7             	mov    %r12,%rdi
  402616:	e8 55 e7 ff ff       	callq  400d70 <gethostbyname@plt>
  40261b:	48 85 c0             	test   %rax,%rax
  40261e:	75 67                	jne    402687 <submitr+0x125>
  402620:	48 b8 45 72 72 6f 72 	movabs $0x44203a726f727245,%rax
  402627:	3a 20 44 
  40262a:	48 89 03             	mov    %rax,(%rbx)
  40262d:	48 b8 4e 53 20 69 73 	movabs $0x6e7520736920534e,%rax
  402634:	20 75 6e 
  402637:	48 89 43 08          	mov    %rax,0x8(%rbx)
  40263b:	48 b8 61 62 6c 65 20 	movabs $0x206f7420656c6261,%rax
  402642:	74 6f 20 
  402645:	48 89 43 10          	mov    %rax,0x10(%rbx)
  402649:	48 b8 72 65 73 6f 6c 	movabs $0x2065766c6f736572,%rax
  402650:	76 65 20 
  402653:	48 89 43 18          	mov    %rax,0x18(%rbx)
  402657:	48 b8 73 65 72 76 65 	movabs $0x6120726576726573,%rax
  40265e:	72 20 61 
  402661:	48 89 43 20          	mov    %rax,0x20(%rbx)
  402665:	c7 43 28 64 64 72 65 	movl   $0x65726464,0x28(%rbx)
  40266c:	66 c7 43 2c 73 73    	movw   $0x7373,0x2c(%rbx)
  402672:	c6 43 2e 00          	movb   $0x0,0x2e(%rbx)
  402676:	89 ef                	mov    %ebp,%edi
  402678:	e8 b3 e6 ff ff       	callq  400d30 <close@plt>
  40267d:	b8 ff ff ff ff       	mov    $0xffffffff,%eax
  402682:	e9 21 06 00 00       	jmpq   402ca8 <submitr+0x746>
  402687:	48 c7 44 24 20 00 00 	movq   $0x0,0x20(%rsp)
  40268e:	00 00 
  402690:	48 c7 44 24 28 00 00 	movq   $0x0,0x28(%rsp)
  402697:	00 00 
  402699:	66 c7 44 24 20 02 00 	movw   $0x2,0x20(%rsp)
  4026a0:	48 63 50 14          	movslq 0x14(%rax),%rdx
  4026a4:	48 8b 40 18          	mov    0x18(%rax),%rax
  4026a8:	48 8b 30             	mov    (%rax),%rsi
  4026ab:	48 8d 7c 24 24       	lea    0x24(%rsp),%rdi
  4026b0:	b9 0c 00 00 00       	mov    $0xc,%ecx
  4026b5:	e8 c6 e6 ff ff       	callq  400d80 <__memmove_chk@plt>
  4026ba:	0f b7 44 24 04       	movzwl 0x4(%rsp),%eax
  4026bf:	66 c1 c8 08          	ror    $0x8,%ax
  4026c3:	66 89 44 24 22       	mov    %ax,0x22(%rsp)
  4026c8:	ba 10 00 00 00       	mov    $0x10,%edx
  4026cd:	48 8d 74 24 20       	lea    0x20(%rsp),%rsi
  4026d2:	89 ef                	mov    %ebp,%edi
  4026d4:	e8 87 e7 ff ff       	callq  400e60 <connect@plt>
  4026d9:	85 c0                	test   %eax,%eax
  4026db:	79 59                	jns    402736 <submitr+0x1d4>
  4026dd:	48 b8 45 72 72 6f 72 	movabs $0x55203a726f727245,%rax
  4026e4:	3a 20 55 
  4026e7:	48 89 03             	mov    %rax,(%rbx)
  4026ea:	48 b8 6e 61 62 6c 65 	movabs $0x6f7420656c62616e,%rax
  4026f1:	20 74 6f 
  4026f4:	48 89 43 08          	mov    %rax,0x8(%rbx)
  4026f8:	48 b8 20 63 6f 6e 6e 	movabs $0x7463656e6e6f6320,%rax
  4026ff:	65 63 74 
  402702:	48 89 43 10          	mov    %rax,0x10(%rbx)
  402706:	48 b8 20 74 6f 20 74 	movabs $0x20656874206f7420,%rax
  40270d:	68 65 20 
  402710:	48 89 43 18          	mov    %rax,0x18(%rbx)
  402714:	c7 43 20 73 65 72 76 	movl   $0x76726573,0x20(%rbx)
  40271b:	66 c7 43 24 65 72    	movw   $0x7265,0x24(%rbx)
  402721:	c6 43 26 00          	movb   $0x0,0x26(%rbx)
  402725:	89 ef                	mov    %ebp,%edi
  402727:	e8 04 e6 ff ff       	callq  400d30 <close@plt>
  40272c:	b8 ff ff ff ff       	mov    $0xffffffff,%eax
  402731:	e9 72 05 00 00       	jmpq   402ca8 <submitr+0x746>
  402736:	48 c7 c6 ff ff ff ff 	mov    $0xffffffffffffffff,%rsi
  40273d:	b8 00 00 00 00       	mov    $0x0,%eax
  402742:	48 89 f1             	mov    %rsi,%rcx
  402745:	4c 89 ef             	mov    %r13,%rdi
  402748:	f2 ae                	repnz scas %es:(%rdi),%al
  40274a:	48 f7 d1             	not    %rcx
  40274d:	48 89 ca             	mov    %rcx,%rdx
  402750:	48 89 f1             	mov    %rsi,%rcx
  402753:	4c 89 ff             	mov    %r15,%rdi
  402756:	f2 ae                	repnz scas %es:(%rdi),%al
  402758:	48 f7 d1             	not    %rcx
  40275b:	49 89 c8             	mov    %rcx,%r8
  40275e:	48 89 f1             	mov    %rsi,%rcx
  402761:	4c 89 f7             	mov    %r14,%rdi
  402764:	f2 ae                	repnz scas %es:(%rdi),%al
  402766:	48 f7 d1             	not    %rcx
  402769:	4d 8d 44 08 fe       	lea    -0x2(%r8,%rcx,1),%r8
  40276e:	48 89 f1             	mov    %rsi,%rcx
  402771:	48 8b 7c 24 08       	mov    0x8(%rsp),%rdi
  402776:	f2 ae                	repnz scas %es:(%rdi),%al
  402778:	48 89 c8             	mov    %rcx,%rax
  40277b:	48 f7 d0             	not    %rax
  40277e:	49 8d 4c 00 ff       	lea    -0x1(%r8,%rax,1),%rcx
  402783:	48 8d 44 52 fd       	lea    -0x3(%rdx,%rdx,2),%rax
  402788:	48 8d 84 01 80 00 00 	lea    0x80(%rcx,%rax,1),%rax
  40278f:	00 
  402790:	48 3d 00 20 00 00    	cmp    $0x2000,%rax
  402796:	76 72                	jbe    40280a <submitr+0x2a8>
  402798:	48 b8 45 72 72 6f 72 	movabs $0x52203a726f727245,%rax
  40279f:	3a 20 52 
  4027a2:	48 89 03             	mov    %rax,(%rbx)
  4027a5:	48 b8 65 73 75 6c 74 	movabs $0x747320746c757365,%rax
  4027ac:	20 73 74 
  4027af:	48 89 43 08          	mov    %rax,0x8(%rbx)
  4027b3:	48 b8 72 69 6e 67 20 	movabs $0x6f6f7420676e6972,%rax
  4027ba:	74 6f 6f 
  4027bd:	48 89 43 10          	mov    %rax,0x10(%rbx)
  4027c1:	48 b8 20 6c 61 72 67 	movabs $0x202e656772616c20,%rax
  4027c8:	65 2e 20 
  4027cb:	48 89 43 18          	mov    %rax,0x18(%rbx)
  4027cf:	48 b8 49 6e 63 72 65 	movabs $0x6573616572636e49,%rax
  4027d6:	61 73 65 
  4027d9:	48 89 43 20          	mov    %rax,0x20(%rbx)
  4027dd:	48 b8 20 53 55 42 4d 	movabs $0x5254494d42555320,%rax
  4027e4:	49 54 52 
  4027e7:	48 89 43 28          	mov    %rax,0x28(%rbx)
  4027eb:	48 b8 5f 4d 41 58 42 	movabs $0x46554258414d5f,%rax
  4027f2:	55 46 00 
  4027f5:	48 89 43 30          	mov    %rax,0x30(%rbx)
  4027f9:	89 ef                	mov    %ebp,%edi
  4027fb:	e8 30 e5 ff ff       	callq  400d30 <close@plt>
  402800:	b8 ff ff ff ff       	mov    $0xffffffff,%eax
  402805:	e9 9e 04 00 00       	jmpq   402ca8 <submitr+0x746>
  40280a:	48 8d b4 24 40 40 00 	lea    0x4040(%rsp),%rsi
  402811:	00 
  402812:	b9 00 04 00 00       	mov    $0x400,%ecx
  402817:	b8 00 00 00 00       	mov    $0x0,%eax
  40281c:	48 89 f7             	mov    %rsi,%rdi
  40281f:	f3 48 ab             	rep stos %rax,%es:(%rdi)
  402822:	4c 89 ef             	mov    %r13,%rdi
  402825:	e8 2b fc ff ff       	callq  402455 <urlencode>
  40282a:	85 c0                	test   %eax,%eax
  40282c:	0f 89 8a 00 00 00    	jns    4028bc <submitr+0x35a>
  402832:	48 b8 45 72 72 6f 72 	movabs $0x52203a726f727245,%rax
  402839:	3a 20 52 
  40283c:	48 89 03             	mov    %rax,(%rbx)
  40283f:	48 b8 65 73 75 6c 74 	movabs $0x747320746c757365,%rax
  402846:	20 73 74 
  402849:	48 89 43 08          	mov    %rax,0x8(%rbx)
  40284d:	48 b8 72 69 6e 67 20 	movabs $0x6e6f6320676e6972,%rax
  402854:	63 6f 6e 
  402857:	48 89 43 10          	mov    %rax,0x10(%rbx)
  40285b:	48 b8 74 61 69 6e 73 	movabs $0x6e6120736e696174,%rax
  402862:	20 61 6e 
  402865:	48 89 43 18          	mov    %rax,0x18(%rbx)
  402869:	48 b8 20 69 6c 6c 65 	movabs $0x6c6167656c6c6920,%rax
  402870:	67 61 6c 
  402873:	48 89 43 20          	mov    %rax,0x20(%rbx)
  402877:	48 b8 20 6f 72 20 75 	movabs $0x72706e7520726f20,%rax
  40287e:	6e 70 72 
  402881:	48 89 43 28          	mov    %rax,0x28(%rbx)
  402885:	48 b8 69 6e 74 61 62 	movabs $0x20656c6261746e69,%rax
  40288c:	6c 65 20 
  40288f:	48 89 43 30          	mov    %rax,0x30(%rbx)
  402893:	48 b8 63 68 61 72 61 	movabs $0x6574636172616863,%rax
  40289a:	63 74 65 
  40289d:	48 89 43 38          	mov    %rax,0x38(%rbx)
  4028a1:	66 c7 43 40 72 2e    	movw   $0x2e72,0x40(%rbx)
  4028a7:	c6 43 42 00          	movb   $0x0,0x42(%rbx)
  4028ab:	89 ef                	mov    %ebp,%edi
  4028ad:	e8 7e e4 ff ff       	callq  400d30 <close@plt>
  4028b2:	b8 ff ff ff ff       	mov    $0xffffffff,%eax
  4028b7:	e9 ec 03 00 00       	jmpq   402ca8 <submitr+0x746>
  4028bc:	4c 8d ac 24 40 20 00 	lea    0x2040(%rsp),%r13
  4028c3:	00 
  4028c4:	41 54                	push   %r12
  4028c6:	48 8d 84 24 48 40 00 	lea    0x4048(%rsp),%rax
  4028cd:	00 
  4028ce:	50                   	push   %rax
  4028cf:	4d 89 f9             	mov    %r15,%r9
  4028d2:	4d 89 f0             	mov    %r14,%r8
  4028d5:	b9 68 3e 40 00       	mov    $0x403e68,%ecx
  4028da:	ba 00 20 00 00       	mov    $0x2000,%edx
  4028df:	be 01 00 00 00       	mov    $0x1,%esi
  4028e4:	4c 89 ef             	mov    %r13,%rdi
  4028e7:	b8 00 00 00 00       	mov    $0x0,%eax
  4028ec:	e8 8f e5 ff ff       	callq  400e80 <__sprintf_chk@plt>
  4028f1:	b8 00 00 00 00       	mov    $0x0,%eax
  4028f6:	48 c7 c1 ff ff ff ff 	mov    $0xffffffffffffffff,%rcx
  4028fd:	4c 89 ef             	mov    %r13,%rdi
  402900:	f2 ae                	repnz scas %es:(%rdi),%al
  402902:	48 f7 d1             	not    %rcx
  402905:	48 8d 51 ff          	lea    -0x1(%rcx),%rdx
  402909:	4c 89 ee             	mov    %r13,%rsi
  40290c:	89 ef                	mov    %ebp,%edi
  40290e:	e8 b1 f9 ff ff       	callq  4022c4 <rio_writen>
  402913:	48 83 c4 10          	add    $0x10,%rsp
  402917:	48 85 c0             	test   %rax,%rax
  40291a:	79 6e                	jns    40298a <submitr+0x428>
  40291c:	48 b8 45 72 72 6f 72 	movabs $0x43203a726f727245,%rax
  402923:	3a 20 43 
  402926:	48 89 03             	mov    %rax,(%rbx)
  402929:	48 b8 6c 69 65 6e 74 	movabs $0x6e7520746e65696c,%rax
  402930:	20 75 6e 
  402933:	48 89 43 08          	mov    %rax,0x8(%rbx)
  402937:	48 b8 61 62 6c 65 20 	movabs $0x206f7420656c6261,%rax
  40293e:	74 6f 20 
  402941:	48 89 43 10          	mov    %rax,0x10(%rbx)
  402945:	48 b8 77 72 69 74 65 	movabs $0x6f74206574697277,%rax
  40294c:	20 74 6f 
  40294f:	48 89 43 18          	mov    %rax,0x18(%rbx)
  402953:	48 b8 20 74 68 65 20 	movabs $0x7365722065687420,%rax
  40295a:	72 65 73 
  40295d:	48 89 43 20          	mov    %rax,0x20(%rbx)
  402961:	48 b8 75 6c 74 20 73 	movabs $0x7672657320746c75,%rax
  402968:	65 72 76 
  40296b:	48 89 43 28          	mov    %rax,0x28(%rbx)
  40296f:	66 c7 43 30 65 72    	movw   $0x7265,0x30(%rbx)
  402975:	c6 43 32 00          	movb   $0x0,0x32(%rbx)
  402979:	89 ef                	mov    %ebp,%edi
  40297b:	e8 b0 e3 ff ff       	callq  400d30 <close@plt>
  402980:	b8 ff ff ff ff       	mov    $0xffffffff,%eax
  402985:	e9 1e 03 00 00       	jmpq   402ca8 <submitr+0x746>
  40298a:	89 ee                	mov    %ebp,%esi
  40298c:	48 8d 7c 24 30       	lea    0x30(%rsp),%rdi
  402991:	e8 ee f8 ff ff       	callq  402284 <rio_readinitb>
  402996:	ba 00 20 00 00       	mov    $0x2000,%edx
  40299b:	48 8d b4 24 40 20 00 	lea    0x2040(%rsp),%rsi
  4029a2:	00 
  4029a3:	48 8d 7c 24 30       	lea    0x30(%rsp),%rdi
  4029a8:	e8 fe f9 ff ff       	callq  4023ab <rio_readlineb>
  4029ad:	48 85 c0             	test   %rax,%rax
  4029b0:	7f 7d                	jg     402a2f <submitr+0x4cd>
  4029b2:	48 b8 45 72 72 6f 72 	movabs $0x43203a726f727245,%rax
  4029b9:	3a 20 43 
  4029bc:	48 89 03             	mov    %rax,(%rbx)
  4029bf:	48 b8 6c 69 65 6e 74 	movabs $0x6e7520746e65696c,%rax
  4029c6:	20 75 6e 
  4029c9:	48 89 43 08          	mov    %rax,0x8(%rbx)
  4029cd:	48 b8 61 62 6c 65 20 	movabs $0x206f7420656c6261,%rax
  4029d4:	74 6f 20 
  4029d7:	48 89 43 10          	mov    %rax,0x10(%rbx)
  4029db:	48 b8 72 65 61 64 20 	movabs $0x7269662064616572,%rax
  4029e2:	66 69 72 
  4029e5:	48 89 43 18          	mov    %rax,0x18(%rbx)
  4029e9:	48 b8 73 74 20 68 65 	movabs $0x6564616568207473,%rax
  4029f0:	61 64 65 
  4029f3:	48 89 43 20          	mov    %rax,0x20(%rbx)
  4029f7:	48 b8 72 20 66 72 6f 	movabs $0x72206d6f72662072,%rax
  4029fe:	6d 20 72 
  402a01:	48 89 43 28          	mov    %rax,0x28(%rbx)
  402a05:	48 b8 65 73 75 6c 74 	movabs $0x657320746c757365,%rax
  402a0c:	20 73 65 
  402a0f:	48 89 43 30          	mov    %rax,0x30(%rbx)
  402a13:	c7 43 38 72 76 65 72 	movl   $0x72657672,0x38(%rbx)
  402a1a:	c6 43 3c 00          	movb   $0x0,0x3c(%rbx)
  402a1e:	89 ef                	mov    %ebp,%edi
  402a20:	e8 0b e3 ff ff       	callq  400d30 <close@plt>
  402a25:	b8 ff ff ff ff       	mov    $0xffffffff,%eax
  402a2a:	e9 79 02 00 00       	jmpq   402ca8 <submitr+0x746>
  402a2f:	4c 8d 84 24 40 80 00 	lea    0x8040(%rsp),%r8
  402a36:	00 
  402a37:	48 8d 4c 24 1c       	lea    0x1c(%rsp),%rcx
  402a3c:	48 8d 94 24 40 60 00 	lea    0x6040(%rsp),%rdx
  402a43:	00 
  402a44:	be df 3e 40 00       	mov    $0x403edf,%esi
  402a49:	48 8d bc 24 40 20 00 	lea    0x2040(%rsp),%rdi
  402a50:	00 
  402a51:	b8 00 00 00 00       	mov    $0x0,%eax
  402a56:	e8 85 e3 ff ff       	callq  400de0 <__isoc99_sscanf@plt>
  402a5b:	e9 95 00 00 00       	jmpq   402af5 <submitr+0x593>
  402a60:	ba 00 20 00 00       	mov    $0x2000,%edx
  402a65:	48 8d b4 24 40 20 00 	lea    0x2040(%rsp),%rsi
  402a6c:	00 
  402a6d:	48 8d 7c 24 30       	lea    0x30(%rsp),%rdi
  402a72:	e8 34 f9 ff ff       	callq  4023ab <rio_readlineb>
  402a77:	48 85 c0             	test   %rax,%rax
  402a7a:	7f 79                	jg     402af5 <submitr+0x593>
  402a7c:	48 b8 45 72 72 6f 72 	movabs $0x43203a726f727245,%rax
  402a83:	3a 20 43 
  402a86:	48 89 03             	mov    %rax,(%rbx)
  402a89:	48 b8 6c 69 65 6e 74 	movabs $0x6e7520746e65696c,%rax
  402a90:	20 75 6e 
  402a93:	48 89 43 08          	mov    %rax,0x8(%rbx)
  402a97:	48 b8 61 62 6c 65 20 	movabs $0x206f7420656c6261,%rax
  402a9e:	74 6f 20 
  402aa1:	48 89 43 10          	mov    %rax,0x10(%rbx)
  402aa5:	48 b8 72 65 61 64 20 	movabs $0x6165682064616572,%rax
  402aac:	68 65 61 
  402aaf:	48 89 43 18          	mov    %rax,0x18(%rbx)
  402ab3:	48 b8 64 65 72 73 20 	movabs $0x6f72662073726564,%rax
  402aba:	66 72 6f 
  402abd:	48 89 43 20          	mov    %rax,0x20(%rbx)
  402ac1:	48 b8 6d 20 74 68 65 	movabs $0x657220656874206d,%rax
  402ac8:	20 72 65 
  402acb:	48 89 43 28          	mov    %rax,0x28(%rbx)
  402acf:	48 b8 73 75 6c 74 20 	movabs $0x72657320746c7573,%rax
  402ad6:	73 65 72 
  402ad9:	48 89 43 30          	mov    %rax,0x30(%rbx)
  402add:	c7 43 38 76 65 72 00 	movl   $0x726576,0x38(%rbx)
  402ae4:	89 ef                	mov    %ebp,%edi
  402ae6:	e8 45 e2 ff ff       	callq  400d30 <close@plt>
  402aeb:	b8 ff ff ff ff       	mov    $0xffffffff,%eax
  402af0:	e9 b3 01 00 00       	jmpq   402ca8 <submitr+0x746>
  402af5:	0f b6 94 24 40 20 00 	movzbl 0x2040(%rsp),%edx
  402afc:	00 
  402afd:	b8 0d 00 00 00       	mov    $0xd,%eax
  402b02:	29 d0                	sub    %edx,%eax
  402b04:	75 1b                	jne    402b21 <submitr+0x5bf>
  402b06:	0f b6 94 24 41 20 00 	movzbl 0x2041(%rsp),%edx
  402b0d:	00 
  402b0e:	b8 0a 00 00 00       	mov    $0xa,%eax
  402b13:	29 d0                	sub    %edx,%eax
  402b15:	75 0a                	jne    402b21 <submitr+0x5bf>
  402b17:	0f b6 84 24 42 20 00 	movzbl 0x2042(%rsp),%eax
  402b1e:	00 
  402b1f:	f7 d8                	neg    %eax
  402b21:	85 c0                	test   %eax,%eax
  402b23:	0f 85 37 ff ff ff    	jne    402a60 <submitr+0x4fe>
  402b29:	ba 00 20 00 00       	mov    $0x2000,%edx
  402b2e:	48 8d b4 24 40 20 00 	lea    0x2040(%rsp),%rsi
  402b35:	00 
  402b36:	48 8d 7c 24 30       	lea    0x30(%rsp),%rdi
  402b3b:	e8 6b f8 ff ff       	callq  4023ab <rio_readlineb>
  402b40:	48 85 c0             	test   %rax,%rax
  402b43:	0f 8f 83 00 00 00    	jg     402bcc <submitr+0x66a>
  402b49:	48 b8 45 72 72 6f 72 	movabs $0x43203a726f727245,%rax
  402b50:	3a 20 43 
  402b53:	48 89 03             	mov    %rax,(%rbx)
  402b56:	48 b8 6c 69 65 6e 74 	movabs $0x6e7520746e65696c,%rax
  402b5d:	20 75 6e 
  402b60:	48 89 43 08          	mov    %rax,0x8(%rbx)
  402b64:	48 b8 61 62 6c 65 20 	movabs $0x206f7420656c6261,%rax
  402b6b:	74 6f 20 
  402b6e:	48 89 43 10          	mov    %rax,0x10(%rbx)
  402b72:	48 b8 72 65 61 64 20 	movabs $0x6174732064616572,%rax
  402b79:	73 74 61 
  402b7c:	48 89 43 18          	mov    %rax,0x18(%rbx)
  402b80:	48 b8 74 75 73 20 6d 	movabs $0x7373656d20737574,%rax
  402b87:	65 73 73 
  402b8a:	48 89 43 20          	mov    %rax,0x20(%rbx)
  402b8e:	48 b8 61 67 65 20 66 	movabs $0x6d6f726620656761,%rax
  402b95:	72 6f 6d 
  402b98:	48 89 43 28          	mov    %rax,0x28(%rbx)
  402b9c:	48 b8 20 72 65 73 75 	movabs $0x20746c7573657220,%rax
  402ba3:	6c 74 20 
  402ba6:	48 89 43 30          	mov    %rax,0x30(%rbx)
  402baa:	c7 43 38 73 65 72 76 	movl   $0x76726573,0x38(%rbx)
  402bb1:	66 c7 43 3c 65 72    	movw   $0x7265,0x3c(%rbx)
  402bb7:	c6 43 3e 00          	movb   $0x0,0x3e(%rbx)
  402bbb:	89 ef                	mov    %ebp,%edi
  402bbd:	e8 6e e1 ff ff       	callq  400d30 <close@plt>
  402bc2:	b8 ff ff ff ff       	mov    $0xffffffff,%eax
  402bc7:	e9 dc 00 00 00       	jmpq   402ca8 <submitr+0x746>
  402bcc:	44 8b 44 24 1c       	mov    0x1c(%rsp),%r8d
  402bd1:	41 81 f8 c8 00 00 00 	cmp    $0xc8,%r8d
  402bd8:	74 37                	je     402c11 <submitr+0x6af>
  402bda:	4c 8d 8c 24 40 80 00 	lea    0x8040(%rsp),%r9
  402be1:	00 
  402be2:	b9 a8 3e 40 00       	mov    $0x403ea8,%ecx
  402be7:	48 c7 c2 ff ff ff ff 	mov    $0xffffffffffffffff,%rdx
  402bee:	be 01 00 00 00       	mov    $0x1,%esi
  402bf3:	48 89 df             	mov    %rbx,%rdi
  402bf6:	b8 00 00 00 00       	mov    $0x0,%eax
  402bfb:	e8 80 e2 ff ff       	callq  400e80 <__sprintf_chk@plt>
  402c00:	89 ef                	mov    %ebp,%edi
  402c02:	e8 29 e1 ff ff       	callq  400d30 <close@plt>
  402c07:	b8 ff ff ff ff       	mov    $0xffffffff,%eax
  402c0c:	e9 97 00 00 00       	jmpq   402ca8 <submitr+0x746>
  402c11:	48 8d b4 24 40 20 00 	lea    0x2040(%rsp),%rsi
  402c18:	00 
  402c19:	48 89 df             	mov    %rbx,%rdi
  402c1c:	e8 9f e0 ff ff       	callq  400cc0 <strcpy@plt>
  402c21:	89 ef                	mov    %ebp,%edi
  402c23:	e8 08 e1 ff ff       	callq  400d30 <close@plt>
  402c28:	0f b6 03             	movzbl (%rbx),%eax
  402c2b:	ba 4f 00 00 00       	mov    $0x4f,%edx
  402c30:	29 c2                	sub    %eax,%edx
  402c32:	75 22                	jne    402c56 <submitr+0x6f4>
  402c34:	0f b6 4b 01          	movzbl 0x1(%rbx),%ecx
  402c38:	b8 4b 00 00 00       	mov    $0x4b,%eax
  402c3d:	29 c8                	sub    %ecx,%eax
  402c3f:	75 17                	jne    402c58 <submitr+0x6f6>
  402c41:	0f b6 4b 02          	movzbl 0x2(%rbx),%ecx
  402c45:	b8 0a 00 00 00       	mov    $0xa,%eax
  402c4a:	29 c8                	sub    %ecx,%eax
  402c4c:	75 0a                	jne    402c58 <submitr+0x6f6>
  402c4e:	0f b6 43 03          	movzbl 0x3(%rbx),%eax
  402c52:	f7 d8                	neg    %eax
  402c54:	eb 02                	jmp    402c58 <submitr+0x6f6>
  402c56:	89 d0                	mov    %edx,%eax
  402c58:	85 c0                	test   %eax,%eax
  402c5a:	74 40                	je     402c9c <submitr+0x73a>
  402c5c:	bf f0 3e 40 00       	mov    $0x403ef0,%edi
  402c61:	b9 05 00 00 00       	mov    $0x5,%ecx
  402c66:	48 89 de             	mov    %rbx,%rsi
  402c69:	f3 a6                	repz cmpsb %es:(%rdi),%ds:(%rsi)
  402c6b:	0f 97 c0             	seta   %al
  402c6e:	0f 92 c1             	setb   %cl
  402c71:	29 c8                	sub    %ecx,%eax
  402c73:	0f be c0             	movsbl %al,%eax
  402c76:	85 c0                	test   %eax,%eax
  402c78:	74 2e                	je     402ca8 <submitr+0x746>
  402c7a:	85 d2                	test   %edx,%edx
  402c7c:	75 13                	jne    402c91 <submitr+0x72f>
  402c7e:	0f b6 43 01          	movzbl 0x1(%rbx),%eax
  402c82:	ba 4b 00 00 00       	mov    $0x4b,%edx
  402c87:	29 c2                	sub    %eax,%edx
  402c89:	75 06                	jne    402c91 <submitr+0x72f>
  402c8b:	0f b6 53 02          	movzbl 0x2(%rbx),%edx
  402c8f:	f7 da                	neg    %edx
  402c91:	85 d2                	test   %edx,%edx
  402c93:	75 0e                	jne    402ca3 <submitr+0x741>
  402c95:	b8 00 00 00 00       	mov    $0x0,%eax
  402c9a:	eb 0c                	jmp    402ca8 <submitr+0x746>
  402c9c:	b8 00 00 00 00       	mov    $0x0,%eax
  402ca1:	eb 05                	jmp    402ca8 <submitr+0x746>
  402ca3:	b8 ff ff ff ff       	mov    $0xffffffff,%eax
  402ca8:	48 8b 9c 24 48 a0 00 	mov    0xa048(%rsp),%rbx
  402caf:	00 
  402cb0:	64 48 33 1c 25 28 00 	xor    %fs:0x28,%rbx
  402cb7:	00 00 
  402cb9:	74 05                	je     402cc0 <submitr+0x75e>
  402cbb:	e8 30 e0 ff ff       	callq  400cf0 <__stack_chk_fail@plt>
  402cc0:	48 81 c4 58 a0 00 00 	add    $0xa058,%rsp
  402cc7:	5b                   	pop    %rbx
  402cc8:	5d                   	pop    %rbp
  402cc9:	41 5c                	pop    %r12
  402ccb:	41 5d                	pop    %r13
  402ccd:	41 5e                	pop    %r14
  402ccf:	41 5f                	pop    %r15
  402cd1:	c3                   	retq   

0000000000402cd2 <init_timeout>:
  402cd2:	85 ff                	test   %edi,%edi
  402cd4:	74 23                	je     402cf9 <init_timeout+0x27>
  402cd6:	53                   	push   %rbx
  402cd7:	89 fb                	mov    %edi,%ebx
  402cd9:	85 ff                	test   %edi,%edi
  402cdb:	79 05                	jns    402ce2 <init_timeout+0x10>
  402cdd:	bb 00 00 00 00       	mov    $0x0,%ebx
  402ce2:	be 96 22 40 00       	mov    $0x402296,%esi
  402ce7:	bf 0e 00 00 00       	mov    $0xe,%edi
  402cec:	e8 6f e0 ff ff       	callq  400d60 <signal@plt>
  402cf1:	89 df                	mov    %ebx,%edi
  402cf3:	e8 28 e0 ff ff       	callq  400d20 <alarm@plt>
  402cf8:	5b                   	pop    %rbx
  402cf9:	f3 c3                	repz retq 

0000000000402cfb <init_driver>:
  402cfb:	55                   	push   %rbp
  402cfc:	53                   	push   %rbx
  402cfd:	48 83 ec 28          	sub    $0x28,%rsp
  402d01:	48 89 fd             	mov    %rdi,%rbp
  402d04:	64 48 8b 04 25 28 00 	mov    %fs:0x28,%rax
  402d0b:	00 00 
  402d0d:	48 89 44 24 18       	mov    %rax,0x18(%rsp)
  402d12:	31 c0                	xor    %eax,%eax
  402d14:	be 01 00 00 00       	mov    $0x1,%esi
  402d19:	bf 0d 00 00 00       	mov    $0xd,%edi
  402d1e:	e8 3d e0 ff ff       	callq  400d60 <signal@plt>
  402d23:	be 01 00 00 00       	mov    $0x1,%esi
  402d28:	bf 1d 00 00 00       	mov    $0x1d,%edi
  402d2d:	e8 2e e0 ff ff       	callq  400d60 <signal@plt>
  402d32:	be 01 00 00 00       	mov    $0x1,%esi
  402d37:	bf 1d 00 00 00       	mov    $0x1d,%edi
  402d3c:	e8 1f e0 ff ff       	callq  400d60 <signal@plt>
  402d41:	ba 00 00 00 00       	mov    $0x0,%edx
  402d46:	be 01 00 00 00       	mov    $0x1,%esi
  402d4b:	bf 02 00 00 00       	mov    $0x2,%edi
  402d50:	e8 3b e1 ff ff       	callq  400e90 <socket@plt>
  402d55:	85 c0                	test   %eax,%eax
  402d57:	79 4f                	jns    402da8 <init_driver+0xad>
  402d59:	48 b8 45 72 72 6f 72 	movabs $0x43203a726f727245,%rax
  402d60:	3a 20 43 
  402d63:	48 89 45 00          	mov    %rax,0x0(%rbp)
  402d67:	48 b8 6c 69 65 6e 74 	movabs $0x6e7520746e65696c,%rax
  402d6e:	20 75 6e 
  402d71:	48 89 45 08          	mov    %rax,0x8(%rbp)
  402d75:	48 b8 61 62 6c 65 20 	movabs $0x206f7420656c6261,%rax
  402d7c:	74 6f 20 
  402d7f:	48 89 45 10          	mov    %rax,0x10(%rbp)
  402d83:	48 b8 63 72 65 61 74 	movabs $0x7320657461657263,%rax
  402d8a:	65 20 73 
  402d8d:	48 89 45 18          	mov    %rax,0x18(%rbp)
  402d91:	c7 45 20 6f 63 6b 65 	movl   $0x656b636f,0x20(%rbp)
  402d98:	66 c7 45 24 74 00    	movw   $0x74,0x24(%rbp)
  402d9e:	b8 ff ff ff ff       	mov    $0xffffffff,%eax
  402da3:	e9 2a 01 00 00       	jmpq   402ed2 <init_driver+0x1d7>
  402da8:	89 c3                	mov    %eax,%ebx
  402daa:	bf f5 3e 40 00       	mov    $0x403ef5,%edi
  402daf:	e8 bc df ff ff       	callq  400d70 <gethostbyname@plt>
  402db4:	48 85 c0             	test   %rax,%rax
  402db7:	75 68                	jne    402e21 <init_driver+0x126>
  402db9:	48 b8 45 72 72 6f 72 	movabs $0x44203a726f727245,%rax
  402dc0:	3a 20 44 
  402dc3:	48 89 45 00          	mov    %rax,0x0(%rbp)
  402dc7:	48 b8 4e 53 20 69 73 	movabs $0x6e7520736920534e,%rax
  402dce:	20 75 6e 
  402dd1:	48 89 45 08          	mov    %rax,0x8(%rbp)
  402dd5:	48 b8 61 62 6c 65 20 	movabs $0x206f7420656c6261,%rax
  402ddc:	74 6f 20 
  402ddf:	48 89 45 10          	mov    %rax,0x10(%rbp)
  402de3:	48 b8 72 65 73 6f 6c 	movabs $0x2065766c6f736572,%rax
  402dea:	76 65 20 
  402ded:	48 89 45 18          	mov    %rax,0x18(%rbp)
  402df1:	48 b8 73 65 72 76 65 	movabs $0x6120726576726573,%rax
  402df8:	72 20 61 
  402dfb:	48 89 45 20          	mov    %rax,0x20(%rbp)
  402dff:	c7 45 28 64 64 72 65 	movl   $0x65726464,0x28(%rbp)
  402e06:	66 c7 45 2c 73 73    	movw   $0x7373,0x2c(%rbp)
  402e0c:	c6 45 2e 00          	movb   $0x0,0x2e(%rbp)
  402e10:	89 df                	mov    %ebx,%edi
  402e12:	e8 19 df ff ff       	callq  400d30 <close@plt>
  402e17:	b8 ff ff ff ff       	mov    $0xffffffff,%eax
  402e1c:	e9 b1 00 00 00       	jmpq   402ed2 <init_driver+0x1d7>
  402e21:	48 c7 04 24 00 00 00 	movq   $0x0,(%rsp)
  402e28:	00 
  402e29:	48 c7 44 24 08 00 00 	movq   $0x0,0x8(%rsp)
  402e30:	00 00 
  402e32:	66 c7 04 24 02 00    	movw   $0x2,(%rsp)
  402e38:	48 63 50 14          	movslq 0x14(%rax),%rdx
  402e3c:	48 8b 40 18          	mov    0x18(%rax),%rax
  402e40:	48 8b 30             	mov    (%rax),%rsi
  402e43:	48 8d 7c 24 04       	lea    0x4(%rsp),%rdi
  402e48:	b9 0c 00 00 00       	mov    $0xc,%ecx
  402e4d:	e8 2e df ff ff       	callq  400d80 <__memmove_chk@plt>
  402e52:	66 c7 44 24 02 3b 94 	movw   $0x943b,0x2(%rsp)
  402e59:	ba 10 00 00 00       	mov    $0x10,%edx
  402e5e:	48 89 e6             	mov    %rsp,%rsi
  402e61:	89 df                	mov    %ebx,%edi
  402e63:	e8 f8 df ff ff       	callq  400e60 <connect@plt>
  402e68:	85 c0                	test   %eax,%eax
  402e6a:	79 50                	jns    402ebc <init_driver+0x1c1>
  402e6c:	48 b8 45 72 72 6f 72 	movabs $0x55203a726f727245,%rax
  402e73:	3a 20 55 
  402e76:	48 89 45 00          	mov    %rax,0x0(%rbp)
  402e7a:	48 b8 6e 61 62 6c 65 	movabs $0x6f7420656c62616e,%rax
  402e81:	20 74 6f 
  402e84:	48 89 45 08          	mov    %rax,0x8(%rbp)
  402e88:	48 b8 20 63 6f 6e 6e 	movabs $0x7463656e6e6f6320,%rax
  402e8f:	65 63 74 
  402e92:	48 89 45 10          	mov    %rax,0x10(%rbp)
  402e96:	48 b8 20 74 6f 20 73 	movabs $0x76726573206f7420,%rax
  402e9d:	65 72 76 
  402ea0:	48 89 45 18          	mov    %rax,0x18(%rbp)
  402ea4:	66 c7 45 20 65 72    	movw   $0x7265,0x20(%rbp)
  402eaa:	c6 45 22 00          	movb   $0x0,0x22(%rbp)
  402eae:	89 df                	mov    %ebx,%edi
  402eb0:	e8 7b de ff ff       	callq  400d30 <close@plt>
  402eb5:	b8 ff ff ff ff       	mov    $0xffffffff,%eax
  402eba:	eb 16                	jmp    402ed2 <init_driver+0x1d7>
  402ebc:	89 df                	mov    %ebx,%edi
  402ebe:	e8 6d de ff ff       	callq  400d30 <close@plt>
  402ec3:	66 c7 45 00 4f 4b    	movw   $0x4b4f,0x0(%rbp)
  402ec9:	c6 45 02 00          	movb   $0x0,0x2(%rbp)
  402ecd:	b8 00 00 00 00       	mov    $0x0,%eax
  402ed2:	48 8b 4c 24 18       	mov    0x18(%rsp),%rcx
  402ed7:	64 48 33 0c 25 28 00 	xor    %fs:0x28,%rcx
  402ede:	00 00 
  402ee0:	74 05                	je     402ee7 <init_driver+0x1ec>
  402ee2:	e8 09 de ff ff       	callq  400cf0 <__stack_chk_fail@plt>
  402ee7:	48 83 c4 28          	add    $0x28,%rsp
  402eeb:	5b                   	pop    %rbx
  402eec:	5d                   	pop    %rbp
  402eed:	c3                   	retq   

0000000000402eee <driver_post>:
  402eee:	53                   	push   %rbx
  402eef:	4c 89 cb             	mov    %r9,%rbx
  402ef2:	45 85 c0             	test   %r8d,%r8d
  402ef5:	74 27                	je     402f1e <driver_post+0x30>
  402ef7:	48 89 ca             	mov    %rcx,%rdx
  402efa:	be 10 3f 40 00       	mov    $0x403f10,%esi
  402eff:	bf 01 00 00 00       	mov    $0x1,%edi
  402f04:	b8 00 00 00 00       	mov    $0x0,%eax
  402f09:	e8 f2 de ff ff       	callq  400e00 <__printf_chk@plt>
  402f0e:	66 c7 03 4f 4b       	movw   $0x4b4f,(%rbx)
  402f13:	c6 43 02 00          	movb   $0x0,0x2(%rbx)
  402f17:	b8 00 00 00 00       	mov    $0x0,%eax
  402f1c:	eb 3f                	jmp    402f5d <driver_post+0x6f>
  402f1e:	48 85 ff             	test   %rdi,%rdi
  402f21:	74 2c                	je     402f4f <driver_post+0x61>
  402f23:	80 3f 00             	cmpb   $0x0,(%rdi)
  402f26:	74 27                	je     402f4f <driver_post+0x61>
  402f28:	48 83 ec 08          	sub    $0x8,%rsp
  402f2c:	41 51                	push   %r9
  402f2e:	49 89 c9             	mov    %rcx,%r9
  402f31:	49 89 d0             	mov    %rdx,%r8
  402f34:	48 89 f9             	mov    %rdi,%rcx
  402f37:	48 89 f2             	mov    %rsi,%rdx
  402f3a:	be 94 3b 00 00       	mov    $0x3b94,%esi
  402f3f:	bf f5 3e 40 00       	mov    $0x403ef5,%edi
  402f44:	e8 19 f6 ff ff       	callq  402562 <submitr>
  402f49:	48 83 c4 10          	add    $0x10,%rsp
  402f4d:	eb 0e                	jmp    402f5d <driver_post+0x6f>
  402f4f:	66 c7 03 4f 4b       	movw   $0x4b4f,(%rbx)
  402f54:	c6 43 02 00          	movb   $0x0,0x2(%rbx)
  402f58:	b8 00 00 00 00       	mov    $0x0,%eax
  402f5d:	5b                   	pop    %rbx
  402f5e:	c3                   	retq   

0000000000402f5f <check>:
  402f5f:	89 f8                	mov    %edi,%eax
  402f61:	c1 e8 1c             	shr    $0x1c,%eax
  402f64:	85 c0                	test   %eax,%eax
  402f66:	74 1d                	je     402f85 <check+0x26>
  402f68:	b9 00 00 00 00       	mov    $0x0,%ecx
  402f6d:	eb 0b                	jmp    402f7a <check+0x1b>
  402f6f:	89 f8                	mov    %edi,%eax
  402f71:	d3 e8                	shr    %cl,%eax
  402f73:	3c 0a                	cmp    $0xa,%al
  402f75:	74 14                	je     402f8b <check+0x2c>
  402f77:	83 c1 08             	add    $0x8,%ecx
  402f7a:	83 f9 1f             	cmp    $0x1f,%ecx
  402f7d:	7e f0                	jle    402f6f <check+0x10>
  402f7f:	b8 01 00 00 00       	mov    $0x1,%eax
  402f84:	c3                   	retq   
  402f85:	b8 00 00 00 00       	mov    $0x0,%eax
  402f8a:	c3                   	retq   
  402f8b:	b8 00 00 00 00       	mov    $0x0,%eax
  402f90:	c3                   	retq   

0000000000402f91 <gencookie>:
  402f91:	53                   	push   %rbx
  402f92:	83 c7 01             	add    $0x1,%edi
  402f95:	e8 06 dd ff ff       	callq  400ca0 <srandom@plt>
  402f9a:	e8 21 de ff ff       	callq  400dc0 <random@plt>
  402f9f:	89 c3                	mov    %eax,%ebx
  402fa1:	89 c7                	mov    %eax,%edi
  402fa3:	e8 b7 ff ff ff       	callq  402f5f <check>
  402fa8:	85 c0                	test   %eax,%eax
  402faa:	74 ee                	je     402f9a <gencookie+0x9>
  402fac:	89 d8                	mov    %ebx,%eax
  402fae:	5b                   	pop    %rbx
  402faf:	c3                   	retq   

0000000000402fb0 <__libc_csu_init>:
  402fb0:	41 57                	push   %r15
  402fb2:	41 56                	push   %r14
  402fb4:	41 89 ff             	mov    %edi,%r15d
  402fb7:	41 55                	push   %r13
  402fb9:	41 54                	push   %r12
  402fbb:	4c 8d 25 4e 1e 20 00 	lea    0x201e4e(%rip),%r12        # 604e10 <__frame_dummy_init_array_entry>
  402fc2:	55                   	push   %rbp
  402fc3:	48 8d 2d 4e 1e 20 00 	lea    0x201e4e(%rip),%rbp        # 604e18 <__init_array_end>
  402fca:	53                   	push   %rbx
  402fcb:	49 89 f6             	mov    %rsi,%r14
  402fce:	49 89 d5             	mov    %rdx,%r13
  402fd1:	4c 29 e5             	sub    %r12,%rbp
  402fd4:	48 83 ec 08          	sub    $0x8,%rsp
  402fd8:	48 c1 fd 03          	sar    $0x3,%rbp
  402fdc:	e8 67 dc ff ff       	callq  400c48 <_init>
  402fe1:	48 85 ed             	test   %rbp,%rbp
  402fe4:	74 20                	je     403006 <__libc_csu_init+0x56>
  402fe6:	31 db                	xor    %ebx,%ebx
  402fe8:	0f 1f 84 00 00 00 00 	nopl   0x0(%rax,%rax,1)
  402fef:	00 
  402ff0:	4c 89 ea             	mov    %r13,%rdx
  402ff3:	4c 89 f6             	mov    %r14,%rsi
  402ff6:	44 89 ff             	mov    %r15d,%edi
  402ff9:	41 ff 14 dc          	callq  *(%r12,%rbx,8)
  402ffd:	48 83 c3 01          	add    $0x1,%rbx
  403001:	48 39 eb             	cmp    %rbp,%rbx
  403004:	75 ea                	jne    402ff0 <__libc_csu_init+0x40>
  403006:	48 83 c4 08          	add    $0x8,%rsp
  40300a:	5b                   	pop    %rbx
  40300b:	5d                   	pop    %rbp
  40300c:	41 5c                	pop    %r12
  40300e:	41 5d                	pop    %r13
  403010:	41 5e                	pop    %r14
  403012:	41 5f                	pop    %r15
  403014:	c3                   	retq   
  403015:	90                   	nop
  403016:	66 2e 0f 1f 84 00 00 	nopw   %cs:0x0(%rax,%rax,1)
  40301d:	00 00 00 

0000000000403020 <__libc_csu_fini>:
  403020:	f3 c3                	repz retq 

Disassembly of section .fini:

0000000000403024 <_fini>:
  403024:	48 83 ec 08          	sub    $0x8,%rsp
  403028:	48 83 c4 08          	add    $0x8,%rsp
  40302c:	c3                   	retq   

